ccopy_reg
_reconstructor
p0
(cnltk.classify.decisiontree
DecisionTreeClassifier
p1
c__builtin__
object
p2
Ntp3
Rp4
(dp5
S'_fname'
p6
S'feature_pattern_pos'
p7
sS'_label'
p8
I-1
sS'_decisions'
p9
(dp10
S'patternNone'
p11
g0
(g1
g2
Ntp12
Rp13
(dp14
g6
Vcontains(easy)
p15
sg8
I-1
sg9
(dp16
I00
g0
(g1
g2
Ntp17
Rp18
(dp19
g6
Vcontains(great)
p20
sg8
I-1
sg9
(dp21
I00
g0
(g1
g2
Ntp22
Rp23
(dp24
g6
S'contains(excellent)'
p25
sg8
I-1
sg9
(dp26
I01
g0
(g1
g2
Ntp27
Rp28
(dp29
g6
S'contains(read)'
p30
sg8
I1
sg9
(dp31
I01
g0
(g1
g2
Ntp32
Rp33
(dp34
g6
Nsg8
I0
sg9
NsS'_default'
p35
NsbsNg0
(g1
g2
Ntp36
Rp37
(dp38
g6
S'contains(running)'
p39
sg8
I1
sg9
(dp40
I01
g0
(g1
g2
Ntp41
Rp42
(dp43
g6
Nsg8
I-1
sg9
Nsg35
NsbsNg0
(g1
g2
Ntp44
Rp45
(dp46
g6
S'contains(around)'
p47
sg8
I1
sg9
(dp48
I01
g0
(g1
g2
Ntp49
Rp50
(dp51
g6
Nsg8
I0
sg9
Nsg35
NsbsNg0
(g1
g2
Ntp52
Rp53
(dp54
g6
S'contains(find)'
p55
sg8
I1
sg9
(dp56
I01
g0
(g1
g2
Ntp57
Rp58
(dp59
g6
Nsg8
I0
sg9
Nsg35
NsbsNg0
(g1
g2
Ntp60
Rp61
(dp62
g6
Nsg8
I1
sg9
Nsg35
Nsbssg35
Nsbssg35
Nsbssg35
Nsbssg35
NsbsNg0
(g1
g2
Ntp63
Rp64
(dp65
g6
S'contains(awesome)'
p66
sg8
I-1
sg9
(dp67
I01
g0
(g1
g2
Ntp68
Rp69
(dp70
g6
S'contains(said)'
p71
sg8
I1
sg9
(dp72
I01
g0
(g1
g2
Ntp73
Rp74
(dp75
g6
Nsg8
I0
sg9
Nsg35
NsbsNg0
(g1
g2
Ntp76
Rp77
(dp78
g6
S'contains(worked)'
p79
sg8
I1
sg9
(dp80
I01
g0
(g1
g2
Ntp81
Rp82
(dp83
g6
Nsg8
I-1
sg9
Nsg35
NsbsNg0
(g1
g2
Ntp84
Rp85
(dp86
g6
Nsg8
I1
sg9
Nsg35
Nsbssg35
Nsbssg35
NsbsNg0
(g1
g2
Ntp87
Rp88
(dp89
g6
S'feature_pattern_neg'
p90
sg8
I-1
sg9
(dp91
g11
g0
(g1
g2
Ntp92
Rp93
(dp94
g6
S'contains(love)'
p95
sg8
I0
sg9
(dp96
I01
g0
(g1
g2
Ntp97
Rp98
(dp99
g6
S'contains(need)'
p100
sg8
I1
sg9
(dp101
I01
g0
(g1
g2
Ntp102
Rp103
(dp104
g6
Nsg8
I0
sg9
Nsg35
NsbsNg0
(g1
g2
Ntp105
Rp106
(dp107
g6
S'contains(thought)'
p108
sg8
I1
sg9
(dp109
I01
g0
(g1
g2
Ntp110
Rp111
(dp112
g6
Nsg8
I0
sg9
Nsg35
NsbsNg0
(g1
g2
Ntp113
Rp114
(dp115
g6
S'contains(expensive)'
p116
sg8
I1
sg9
(dp117
I01
g0
(g1
g2
Ntp118
Rp119
(dp120
g6
Nsg8
I0
sg9
Nsg35
NsbsNg0
(g1
g2
Ntp121
Rp122
(dp123
g6
S'contains(definitely)'
p124
sg8
I1
sg9
(dp125
I01
g0
(g1
g2
Ntp126
Rp127
(dp128
g6
Nsg8
I0
sg9
Nsg35
NsbsNg0
(g1
g2
Ntp129
Rp130
(dp131
g6
S'contains(like)'
p132
sg8
I1
sg9
(dp133
I01
g0
(g1
g2
Ntp134
Rp135
(dp136
g6
Nsg8
I0
sg9
Nsg35
NsbsNg0
(g1
g2
Ntp137
Rp138
(dp139
g6
S'contains(owned)'
p140
sg8
I1
sg9
(dp141
I01
g0
(g1
g2
Ntp142
Rp143
(dp144
g6
Nsg8
I0
sg9
Nsg35
NsbsNg0
(g1
g2
Ntp145
Rp146
(dp147
g6
S'contains(sound)'
p148
sg8
I1
sg9
(dp149
I01
g0
(g1
g2
Ntp150
Rp151
(dp152
g6
Nsg8
I0
sg9
Nsg35
NsbsNg0
(g1
g2
Ntp153
Rp154
(dp155
g6
S'contains(give)'
p156
sg8
I1
sg9
(dp157
I01
g0
(g1
g2
Ntp158
Rp159
(dp160
g6
Nsg8
I0
sg9
Nsg35
NsbsNg0
(g1
g2
Ntp161
Rp162
(dp163
g6
Nsg8
I1
sg9
Nsg35
Nsbssg35
Nsbssg35
Nsbssg35
Nsbssg35
Nsbssg35
Nsbssg35
Nsbssg35
Nsbssg35
NsbsNg0
(g1
g2
Ntp164
Rp165
(dp166
g6
S'contains(sound)'
p167
sg8
I0
sg9
(dp168
I01
g0
(g1
g2
Ntp169
Rp170
(dp171
g6
S'neg_feature_adjectives_count'
p172
sg8
I0
sg9
(dp173
I0
g0
(g1
g2
Ntp174
Rp175
(dp176
g6
S'contains(better)'
p177
sg8
I-1
sg9
(dp178
I01
g0
(g1
g2
Ntp179
Rp180
(dp181
g6
Vcontains(first)
p182
sg8
I0
sg9
(dp183
I00
g0
(g1
g2
Ntp184
Rp185
(dp186
g6
Nsg8
I0
sg9
Nsg35
NsbsI01
g0
(g1
g2
Ntp187
Rp188
(dp189
g6
Nsg8
I1
sg9
Nsg35
Nsbssg35
NsbsNg0
(g1
g2
Ntp190
Rp191
(dp192
g6
S'contains(used)'
p193
sg8
I-1
sg9
(dp194
I01
g0
(g1
g2
Ntp195
Rp196
(dp197
g6
S'contains(take)'
p198
sg8
I0
sg9
(dp199
I01
g0
(g1
g2
Ntp200
Rp201
(dp202
g6
Nsg8
I-1
sg9
Nsg35
NsbsNg0
(g1
g2
Ntp203
Rp204
(dp205
g6
Nsg8
I0
sg9
Nsg35
Nsbssg35
NsbsNg0
(g1
g2
Ntp206
Rp207
(dp208
g6
S'contains(setting)'
p209
sg8
I-1
sg9
(dp210
I01
g0
(g1
g2
Ntp211
Rp212
(dp213
g6
Nsg8
I0
sg9
Nsg35
NsbsNg0
(g1
g2
Ntp214
Rp215
(dp216
g6
S'contains(second)'
p217
sg8
I-1
sg9
(dp218
I01
g0
(g1
g2
Ntp219
Rp220
(dp221
g6
Nsg8
I-1
sg9
Nsg35
NsbsNg0
(g1
g2
Ntp222
Rp223
(dp224
g6
S'contains(simple)'
p225
sg8
I-1
sg9
(dp226
I01
g0
(g1
g2
Ntp227
Rp228
(dp229
g6
Nsg8
I-1
sg9
Nsg35
NsbsNg0
(g1
g2
Ntp230
Rp231
(dp232
g6
Vcontains(first)
p233
sg8
I-1
sg9
(dp234
I00
g0
(g1
g2
Ntp235
Rp236
(dp237
g6
S'contains(would)'
p238
sg8
I-1
sg9
(dp239
I01
g0
(g1
g2
Ntp240
Rp241
(dp242
g6
Vcontains(good)
p243
sg8
I-1
sg9
(dp244
I00
g0
(g1
g2
Ntp245
Rp246
(dp247
g6
Nsg8
I0
sg9
Nsg35
NsbsI01
g0
(g1
g2
Ntp248
Rp249
(dp250
g6
Nsg8
I1
sg9
Nsg35
Nsbssg35
NsbsNg0
(g1
g2
Ntp251
Rp252
(dp253
g6
S'contains(seems)'
p254
sg8
I-1
sg9
(dp255
I01
g0
(g1
g2
Ntp256
Rp257
(dp258
g6
Nsg8
I-1
sg9
Nsg35
NsbsNg0
(g1
g2
Ntp259
Rp260
(dp261
g6
S'contains(completely)'
p262
sg8
I-1
sg9
(dp263
I01
g0
(g1
g2
Ntp264
Rp265
(dp266
g6
Nsg8
I-1
sg9
Nsg35
NsbsNg0
(g1
g2
Ntp267
Rp268
(dp269
g6
S'contains(working)'
p270
sg8
I1
sg9
(dp271
I01
g0
(g1
g2
Ntp272
Rp273
(dp274
g6
Nsg8
I-1
sg9
Nsg35
NsbsNg0
(g1
g2
Ntp275
Rp276
(dp277
g6
S'contains(since)'
p278
sg8
I1
sg9
(dp279
I01
g0
(g1
g2
Ntp280
Rp281
(dp282
g6
Nsg8
I0
sg9
Nsg35
NsbsNg0
(g1
g2
Ntp283
Rp284
(dp285
g6
Vcontains(other)
p286
sg8
I1
sg9
(dp287
I00
g0
(g1
g2
Ntp288
Rp289
(dp290
g6
S'contains(right)'
p291
sg8
I1
sg9
(dp292
I01
g0
(g1
g2
Ntp293
Rp294
(dp295
g6
Nsg8
I0
sg9
Nsg35
NsbsNg0
(g1
g2
Ntp296
Rp297
(dp298
g6
Nsg8
I1
sg9
Nsg35
Nsbssg35
NsbsI01
g0
(g1
g2
Ntp299
Rp300
(dp301
g6
Nsg8
I0
sg9
Nsg35
Nsbssg35
Nsbssg35
Nsbssg35
Nsbssg35
Nsbssg35
Nsbssg35
NsbsI01
g0
(g1
g2
Ntp302
Rp303
(dp304
g6
S'contains(superior)'
p305
sg8
I0
sg9
(dp306
I01
g0
(g1
g2
Ntp307
Rp308
(dp309
g6
Nsg8
I1
sg9
Nsg35
NsbsNg0
(g1
g2
Ntp310
Rp311
(dp312
g6
Nsg8
I0
sg9
Nsg35
Nsbssg35
Nsbssg35
Nsbssg35
Nsbssg35
Nsbssg35
Nsbssg35
Nsbssg35
NsbsI1
g0
(g1
g2
Ntp313
Rp314
(dp315
g6
S'neg_feature_adjectives_curated'
p316
sg8
I0
sg9
(dp317
g11
g0
(g1
g2
Ntp318
Rp319
(dp320
g6
Nsg8
I0
sg9
Nsg35
NsbsS'patternSome'
p321
g0
(g1
g2
Ntp322
Rp323
(dp324
g6
Nsg8
I-1
sg9
Nsg35
Nsbssg35
NsbsI3
g0
(g1
g2
Ntp325
Rp326
(dp327
g6
Nsg8
I-1
sg9
Nsg35
Nsbssg35
NsbsNg0
(g1
g2
Ntp328
Rp329
(dp330
g6
S'contains(perfect)'
p331
sg8
I0
sg9
(dp332
I01
g0
(g1
g2
Ntp333
Rp334
(dp335
g6
S'contains(take)'
p336
sg8
I0
sg9
(dp337
I01
g0
(g1
g2
Ntp338
Rp339
(dp340
g6
S'contains(high)'
p341
sg8
I0
sg9
(dp342
I01
g0
(g1
g2
Ntp343
Rp344
(dp345
g6
Nsg8
I1
sg9
Nsg35
NsbsNg0
(g1
g2
Ntp346
Rp347
(dp348
g6
Nsg8
I0
sg9
Nsg35
Nsbssg35
NsbsNg0
(g1
g2
Ntp349
Rp350
(dp351
g6
Vcontains(little)
p352
sg8
I1
sg9
(dp353
I00
g0
(g1
g2
Ntp354
Rp355
(dp356
g6
S'contains(took)'
p357
sg8
I1
sg9
(dp358
I01
g0
(g1
g2
Ntp359
Rp360
(dp361
g6
Nsg8
I-1
sg9
Nsg35
NsbsNg0
(g1
g2
Ntp362
Rp363
(dp364
g6
Vcontains(music)
p365
sg8
I1
sg9
(dp366
I00
g0
(g1
g2
Ntp367
Rp368
(dp369
g6
Nsg8
I1
sg9
Nsg35
NsbsI01
g0
(g1
g2
Ntp370
Rp371
(dp372
g6
Nsg8
I-1
sg9
Nsg35
Nsbssg35
Nsbssg35
NsbsI01
g0
(g1
g2
Ntp373
Rp374
(dp375
g6
Nsg8
I0
sg9
Nsg35
Nsbssg35
Nsbssg35
NsbsNg0
(g1
g2
Ntp376
Rp377
(dp378
g6
S'contains(amazing)'
p379
sg8
I0
sg9
(dp380
I01
g0
(g1
g2
Ntp381
Rp382
(dp383
g6
S'contains(almost)'
p384
sg8
I1
sg9
(dp385
I01
g0
(g1
g2
Ntp386
Rp387
(dp388
g6
Nsg8
I0
sg9
Nsg35
NsbsNg0
(g1
g2
Ntp389
Rp390
(dp391
g6
S'contains(like)'
p392
sg8
I1
sg9
(dp393
I01
g0
(g1
g2
Ntp394
Rp395
(dp396
g6
Nsg8
I0
sg9
Nsg35
NsbsNg0
(g1
g2
Ntp397
Rp398
(dp399
g6
Nsg8
I1
sg9
Nsg35
Nsbssg35
Nsbssg35
NsbsNg0
(g1
g2
Ntp400
Rp401
(dp402
g6
Vcontains(overall)
p403
sg8
I0
sg9
(dp404
I00
g0
(g1
g2
Ntp405
Rp406
(dp407
g6
Vcontains(nice)
p408
sg8
I0
sg9
(dp409
I00
g0
(g1
g2
Ntp410
Rp411
(dp412
g6
S'contains(fits)'
p413
sg8
I0
sg9
(dp414
I01
g0
(g1
g2
Ntp415
Rp416
(dp417
g6
Nsg8
I1
sg9
Nsg35
NsbsNg0
(g1
g2
Ntp418
Rp419
(dp420
g6
S'contains(fantastic)'
p421
sg8
I0
sg9
(dp422
I01
g0
(g1
g2
Ntp423
Rp424
(dp425
g6
S'contains(mine)'
p426
sg8
I1
sg9
(dp427
I01
g0
(g1
g2
Ntp428
Rp429
(dp430
g6
Nsg8
I0
sg9
Nsg35
NsbsNg0
(g1
g2
Ntp431
Rp432
(dp433
g6
S'contains(better)'
p434
sg8
I1
sg9
(dp435
I01
g0
(g1
g2
Ntp436
Rp437
(dp438
g6
Nsg8
I0
sg9
Nsg35
NsbsNg0
(g1
g2
Ntp439
Rp440
(dp441
g6
Nsg8
I1
sg9
Nsg35
Nsbssg35
Nsbssg35
NsbsNg0
(g1
g2
Ntp442
Rp443
(dp444
g6
S'contains(clear)'
p445
sg8
I0
sg9
(dp446
I01
g0
(g1
g2
Ntp447
Rp448
(dp449
g6
S'contains(play)'
p450
sg8
I-1
sg9
(dp451
I01
g0
(g1
g2
Ntp452
Rp453
(dp454
g6
Nsg8
I0
sg9
Nsg35
NsbsNg0
(g1
g2
Ntp455
Rp456
(dp457
g6
S'contains(taken)'
p458
sg8
I-1
sg9
(dp459
I01
g0
(g1
g2
Ntp460
Rp461
(dp462
g6
Nsg8
I-1
sg9
Nsg35
NsbsNg0
(g1
g2
Ntp463
Rp464
(dp465
g6
Vcontains(creative)
p466
sg8
I-1
sg9
(dp467
I00
g0
(g1
g2
Ntp468
Rp469
(dp470
g6
S'contains(need)'
p471
sg8
I-1
sg9
(dp472
I01
g0
(g1
g2
Ntp473
Rp474
(dp475
g6
Nsg8
I0
sg9
Nsg35
NsbsNg0
(g1
g2
Ntp476
Rp477
(dp478
g6
Nsg8
I1
sg9
Nsg35
Nsbssg35
NsbsI01
g0
(g1
g2
Ntp479
Rp480
(dp481
g6
Nsg8
I0
sg9
Nsg35
Nsbssg35
Nsbssg35
Nsbssg35
NsbsNg0
(g1
g2
Ntp482
Rp483
(dp484
g6
Vcontains(small)
p485
sg8
I0
sg9
(dp486
I00
g0
(g1
g2
Ntp487
Rp488
(dp489
g6
S'contains(best)'
p490
sg8
I0
sg9
(dp491
I01
g0
(g1
g2
Ntp492
Rp493
(dp494
g6
g316
sg8
I1
sg9
(dp495
g11
g0
(g1
g2
Ntp496
Rp497
(dp498
g6
S'pos_feature_adjectives_count'
p499
sg8
I1
sg9
(dp500
I0
g0
(g1
g2
Ntp501
Rp502
(dp503
g6
S'contains(bought)'
p504
sg8
I1
sg9
(dp505
I01
g0
(g1
g2
Ntp506
Rp507
(dp508
g6
Nsg8
I0
sg9
Nsg35
NsbsNg0
(g1
g2
Ntp509
Rp510
(dp511
g6
S'contains(worth)'
p512
sg8
I1
sg9
(dp513
I01
g0
(g1
g2
Ntp514
Rp515
(dp516
g6
Nsg8
I0
sg9
Nsg35
NsbsNg0
(g1
g2
Ntp517
Rp518
(dp519
g6
S'contains(less)'
p520
sg8
I1
sg9
(dp521
I01
g0
(g1
g2
Ntp522
Rp523
(dp524
g6
Nsg8
I0
sg9
Nsg35
NsbsNg0
(g1
g2
Ntp525
Rp526
(dp527
g6
S'contains(like)'
p528
sg8
I1
sg9
(dp529
I01
g0
(g1
g2
Ntp530
Rp531
(dp532
g6
Nsg8
I0
sg9
Nsg35
NsbsNg0
(g1
g2
Ntp533
Rp534
(dp535
g6
S'contains(another)'
p536
sg8
I1
sg9
(dp537
I01
g0
(g1
g2
Ntp538
Rp539
(dp540
g6
Nsg8
I0
sg9
Nsg35
NsbsNg0
(g1
g2
Ntp541
Rp542
(dp543
g6
S'contains(well)'
p544
sg8
I1
sg9
(dp545
I01
g0
(g1
g2
Ntp546
Rp547
(dp548
g6
Nsg8
I0
sg9
Nsg35
NsbsNg0
(g1
g2
Ntp549
Rp550
(dp551
g6
S'contains(extra)'
p552
sg8
I1
sg9
(dp553
I01
g0
(g1
g2
Ntp554
Rp555
(dp556
g6
Nsg8
I0
sg9
Nsg35
NsbsNg0
(g1
g2
Ntp557
Rp558
(dp559
g6
S'contains(much)'
p560
sg8
I1
sg9
(dp561
I01
g0
(g1
g2
Ntp562
Rp563
(dp564
g6
Nsg8
I0
sg9
Nsg35
NsbsNg0
(g1
g2
Ntp565
Rp566
(dp567
g6
S'contains(recommend)'
p568
sg8
I1
sg9
(dp569
I01
g0
(g1
g2
Ntp570
Rp571
(dp572
g6
Nsg8
I0
sg9
Nsg35
NsbsNg0
(g1
g2
Ntp573
Rp574
(dp575
g6
Nsg8
I1
sg9
Nsg35
Nsbssg35
Nsbssg35
Nsbssg35
Nsbssg35
Nsbssg35
Nsbssg35
Nsbssg35
Nsbssg35
Nsbssg35
NsbsI1
g0
(g1
g2
Ntp576
Rp577
(dp578
g6
S'contains(available)'
p579
sg8
I0
sg9
(dp580
I01
g0
(g1
g2
Ntp581
Rp582
(dp583
g6
Nsg8
I1
sg9
Nsg35
NsbsNg0
(g1
g2
Ntp584
Rp585
(dp586
g6
Vcontains(big)
p587
sg8
I0
sg9
(dp588
I00
g0
(g1
g2
Ntp589
Rp590
(dp591
g6
S'contains(want)'
p592
sg8
I0
sg9
(dp593
I01
g0
(g1
g2
Ntp594
Rp595
(dp596
g6
Nsg8
I1
sg9
Nsg35
NsbsNg0
(g1
g2
Ntp597
Rp598
(dp599
g6
S'contains(simply)'
p600
sg8
I0
sg9
(dp601
I01
g0
(g1
g2
Ntp602
Rp603
(dp604
g6
Nsg8
I1
sg9
Nsg35
NsbsNg0
(g1
g2
Ntp605
Rp606
(dp607
g6
Nsg8
I0
sg9
Nsg35
Nsbssg35
Nsbssg35
NsbsI01
g0
(g1
g2
Ntp608
Rp609
(dp610
g6
Nsg8
I1
sg9
Nsg35
Nsbssg35
Nsbssg35
NsbsI2
g0
(g1
g2
Ntp611
Rp612
(dp613
g6
Nsg8
I1
sg9
Nsg35
NsbsI3
g0
(g1
g2
Ntp614
Rp615
(dp616
g6
Nsg8
I0
sg9
Nsg35
Nsbssg35
Nsbsg321
g0
(g1
g2
Ntp617
Rp618
(dp619
g6
S'contains(seems)'
p620
sg8
I0
sg9
(dp621
I01
g0
(g1
g2
Ntp622
Rp623
(dp624
g6
Nsg8
I1
sg9
Nsg35
NsbsNg0
(g1
g2
Ntp625
Rp626
(dp627
g6
S'contains(still)'
p628
sg8
I0
sg9
(dp629
I01
g0
(g1
g2
Ntp630
Rp631
(dp632
g6
Nsg8
I1
sg9
Nsg35
NsbsNg0
(g1
g2
Ntp633
Rp634
(dp635
g6
S'contains(setting)'
p636
sg8
I0
sg9
(dp637
I01
g0
(g1
g2
Ntp638
Rp639
(dp640
g6
Nsg8
I1
sg9
Nsg35
NsbsNg0
(g1
g2
Ntp641
Rp642
(dp643
g6
S'contains(special)'
p644
sg8
I0
sg9
(dp645
I01
g0
(g1
g2
Ntp646
Rp647
(dp648
g6
Nsg8
I1
sg9
Nsg35
NsbsNg0
(g1
g2
Ntp649
Rp650
(dp651
g6
Vcontains(many)
p652
sg8
I0
sg9
(dp653
I00
g0
(g1
g2
Ntp654
Rp655
(dp656
g6
S'contains(keep)'
p657
sg8
I0
sg9
(dp658
I01
g0
(g1
g2
Ntp659
Rp660
(dp661
g6
Nsg8
I-1
sg9
Nsg35
NsbsNg0
(g1
g2
Ntp662
Rp663
(dp664
g6
Vcontains(slow)
p665
sg8
I0
sg9
(dp666
I00
g0
(g1
g2
Ntp667
Rp668
(dp669
g6
Nsg8
I0
sg9
Nsg35
NsbsI01
g0
(g1
g2
Ntp670
Rp671
(dp672
g6
Nsg8
I-1
sg9
Nsg35
Nsbssg35
Nsbssg35
NsbsI01
g0
(g1
g2
Ntp673
Rp674
(dp675
g6
Nsg8
I-1
sg9
Nsg35
Nsbssg35
Nsbssg35
Nsbssg35
Nsbssg35
Nsbssg35
Nsbssg35
NsbsNg0
(g1
g2
Ntp676
Rp677
(dp678
g6
S'contains(pleased)'
p679
sg8
I0
sg9
(dp680
I01
g0
(g1
g2
Ntp681
Rp682
(dp683
g6
S'contains(know)'
p684
sg8
I1
sg9
(dp685
I01
g0
(g1
g2
Ntp686
Rp687
(dp688
g6
Nsg8
I0
sg9
Nsg35
NsbsNg0
(g1
g2
Ntp689
Rp690
(dp691
g6
Nsg8
I1
sg9
Nsg35
Nsbssg35
NsbsNg0
(g1
g2
Ntp692
Rp693
(dp694
g6
S'contains(outstanding)'
p695
sg8
I0
sg9
(dp696
I01
g0
(g1
g2
Ntp697
Rp698
(dp699
g6
S'contains(superior)'
p700
sg8
I1
sg9
(dp701
I01
g0
(g1
g2
Ntp702
Rp703
(dp704
g6
Nsg8
I0
sg9
Nsg35
NsbsNg0
(g1
g2
Ntp705
Rp706
(dp707
g6
Nsg8
I1
sg9
Nsg35
Nsbssg35
NsbsNg0
(g1
g2
Ntp708
Rp709
(dp710
g6
S'contains(satisfied)'
p711
sg8
I0
sg9
(dp712
I01
g0
(g1
g2
Ntp713
Rp714
(dp715
g6
S'contains(still)'
p716
sg8
I1
sg9
(dp717
I01
g0
(g1
g2
Ntp718
Rp719
(dp720
g6
Nsg8
I-1
sg9
Nsg35
NsbsNg0
(g1
g2
Ntp721
Rp722
(dp723
g6
S'contains(never)'
p724
sg8
I1
sg9
(dp725
I01
g0
(g1
g2
Ntp726
Rp727
(dp728
g6
Nsg8
I0
sg9
Nsg35
NsbsNg0
(g1
g2
Ntp729
Rp730
(dp731
g6
S'contains(less)'
p732
sg8
I1
sg9
(dp733
I01
g0
(g1
g2
Ntp734
Rp735
(dp736
g6
Nsg8
I0
sg9
Nsg35
NsbsNg0
(g1
g2
Ntp737
Rp738
(dp739
g6
Nsg8
I1
sg9
Nsg35
Nsbssg35
Nsbssg35
Nsbssg35
NsbsNg0
(g1
g2
Ntp740
Rp741
(dp742
g6
Vcontains(cool)
p743
sg8
I0
sg9
(dp744
I00
g0
(g1
g2
Ntp745
Rp746
(dp747
g6
Vcontains(slow)
p748
sg8
I0
sg9
(dp749
I00
g0
(g1
g2
Ntp750
Rp751
(dp752
g6
S'contains(impressed)'
p753
sg8
I0
sg9
(dp754
I01
g0
(g1
g2
Ntp755
Rp756
(dp757
g6
S'contains(less)'
p758
sg8
I-1
sg9
(dp759
I01
g0
(g1
g2
Ntp760
Rp761
(dp762
g6
Nsg8
I0
sg9
Nsg35
NsbsNg0
(g1
g2
Ntp763
Rp764
(dp765
g6
Vcontains(first)
p766
sg8
I-1
sg9
(dp767
I00
g0
(g1
g2
Ntp768
Rp769
(dp770
g6
S'contains(quite)'
p771
sg8
I0
sg9
(dp772
I01
g0
(g1
g2
Ntp773
Rp774
(dp775
g6
Nsg8
I0
sg9
Nsg35
NsbsNg0
(g1
g2
Ntp776
Rp777
(dp778
g6
Nsg8
I1
sg9
Nsg35
Nsbssg35
NsbsI01
g0
(g1
g2
Ntp779
Rp780
(dp781
g6
Nsg8
I-1
sg9
Nsg35
Nsbssg35
Nsbssg35
NsbsNg0
(g1
g2
Ntp782
Rp783
(dp784
g6
S'contains(works)'
p785
sg8
I0
sg9
(dp786
I01
g0
(g1
g2
Ntp787
Rp788
(dp789
g6
S'contains(well)'
p790
sg8
I0
sg9
(dp791
I01
g0
(g1
g2
Ntp792
Rp793
(dp794
g6
S'contains(never)'
p795
sg8
I1
sg9
(dp796
I01
g0
(g1
g2
Ntp797
Rp798
(dp799
g6
Nsg8
I0
sg9
Nsg35
NsbsNg0
(g1
g2
Ntp800
Rp801
(dp802
g6
S'contains(larger)'
p803
sg8
I1
sg9
(dp804
I01
g0
(g1
g2
Ntp805
Rp806
(dp807
g6
Nsg8
I0
sg9
Nsg35
NsbsNg0
(g1
g2
Ntp808
Rp809
(dp810
g6
Nsg8
I1
sg9
Nsg35
Nsbssg35
Nsbssg35
NsbsNg0
(g1
g2
Ntp811
Rp812
(dp813
g6
g316
sg8
I0
sg9
(dp814
g11
g0
(g1
g2
Ntp815
Rp816
(dp817
g6
S'contains(ever)'
p818
sg8
I0
sg9
(dp819
I01
g0
(g1
g2
Ntp820
Rp821
(dp822
g6
Nsg8
I1
sg9
Nsg35
NsbsNg0
(g1
g2
Ntp823
Rp824
(dp825
g6
S'contains(either)'
p826
sg8
I0
sg9
(dp827
I01
g0
(g1
g2
Ntp828
Rp829
(dp830
g6
S'contains(installed)'
p831
sg8
I1
sg9
(dp832
I01
g0
(g1
g2
Ntp833
Rp834
(dp835
g6
Nsg8
I-1
sg9
Nsg35
NsbsNg0
(g1
g2
Ntp836
Rp837
(dp838
g6
Nsg8
I1
sg9
Nsg35
Nsbssg35
NsbsNg0
(g1
g2
Ntp839
Rp840
(dp841
g6
S'contains(simple)'
p842
sg8
I0
sg9
(dp843
I01
g0
(g1
g2
Ntp844
Rp845
(dp846
g6
Nsg8
I1
sg9
Nsg35
NsbsNg0
(g1
g2
Ntp847
Rp848
(dp849
g6
S'contains(easily)'
p850
sg8
I0
sg9
(dp851
I01
g0
(g1
g2
Ntp852
Rp853
(dp854
g6
Nsg8
I1
sg9
Nsg35
NsbsNg0
(g1
g2
Ntp855
Rp856
(dp857
g6
S'contains(perfectly)'
p858
sg8
I0
sg9
(dp859
I01
g0
(g1
g2
Ntp860
Rp861
(dp862
g6
Nsg8
I1
sg9
Nsg35
NsbsNg0
(g1
g2
Ntp863
Rp864
(dp865
g6
Nsg8
I0
sg9
Nsg35
Nsbssg35
Nsbssg35
Nsbssg35
Nsbssg35
Nsbssg35
Nsbsg321
g0
(g1
g2
Ntp866
Rp867
(dp868
g6
S'contains(also)'
p869
sg8
I-1
sg9
(dp870
I01
g0
(g1
g2
Ntp871
Rp872
(dp873
g6
Nsg8
I-1
sg9
Nsg35
NsbsNg0
(g1
g2
Ntp874
Rp875
(dp876
g6
Nsg8
I1
sg9
Nsg35
Nsbssg35
Nsbssg35
Nsbssg35
NsbsNg0
(g1
g2
Ntp877
Rp878
(dp879
g6
S'contains(special)'
p880
sg8
I0
sg9
(dp881
I01
g0
(g1
g2
Ntp882
Rp883
(dp884
g6
S'contains(plays)'
p885
sg8
I1
sg9
(dp886
I01
g0
(g1
g2
Ntp887
Rp888
(dp889
g6
Nsg8
I-1
sg9
Nsg35
NsbsNg0
(g1
g2
Ntp890
Rp891
(dp892
g6
Nsg8
I1
sg9
Nsg35
Nsbssg35
NsbsNg0
(g1
g2
Ntp893
Rp894
(dp895
g6
S'contains(absolutely)'
p896
sg8
I0
sg9
(dp897
I01
g0
(g1
g2
Ntp898
Rp899
(dp900
g6
S'contains(taken)'
p901
sg8
I1
sg9
(dp902
I01
g0
(g1
g2
Ntp903
Rp904
(dp905
g6
Nsg8
I0
sg9
Nsg35
NsbsNg0
(g1
g2
Ntp906
Rp907
(dp908
g6
S'contains(looks)'
p909
sg8
I1
sg9
(dp910
I01
g0
(g1
g2
Ntp911
Rp912
(dp913
g6
Nsg8
I0
sg9
Nsg35
NsbsNg0
(g1
g2
Ntp914
Rp915
(dp916
g6
S'contains(useful)'
p917
sg8
I1
sg9
(dp918
I01
g0
(g1
g2
Ntp919
Rp920
(dp921
g6
Nsg8
I-1
sg9
Nsg35
NsbsNg0
(g1
g2
Ntp922
Rp923
(dp924
g6
Nsg8
I1
sg9
Nsg35
Nsbssg35
Nsbssg35
Nsbssg35
NsbsNg0
(g1
g2
Ntp925
Rp926
(dp927
g6
S'contains(looks)'
p928
sg8
I0
sg9
(dp929
I01
g0
(g1
g2
Ntp930
Rp931
(dp932
g6
g499
sg8
I1
sg9
(dp933
I0
g0
(g1
g2
Ntp934
Rp935
(dp936
g6
S'contains(either)'
p937
sg8
I1
sg9
(dp938
I01
g0
(g1
g2
Ntp939
Rp940
(dp941
g6
Nsg8
I0
sg9
Nsg35
NsbsNg0
(g1
g2
Ntp942
Rp943
(dp944
g6
S'contains(play)'
p945
sg8
I1
sg9
(dp946
I01
g0
(g1
g2
Ntp947
Rp948
(dp949
g6
Nsg8
I-1
sg9
Nsg35
NsbsNg0
(g1
g2
Ntp950
Rp951
(dp952
g6
Vcontains(bad)
p953
sg8
I1
sg9
(dp954
I00
g0
(g1
g2
Ntp955
Rp956
(dp957
g6
S'contains(actually)'
p958
sg8
I1
sg9
(dp959
I01
g0
(g1
g2
Ntp960
Rp961
(dp962
g6
Nsg8
I0
sg9
Nsg35
NsbsNg0
(g1
g2
Ntp963
Rp964
(dp965
g6
S'contains(quite)'
p966
sg8
I1
sg9
(dp967
I01
g0
(g1
g2
Ntp968
Rp969
(dp970
g6
Nsg8
I0
sg9
Nsg35
NsbsNg0
(g1
g2
Ntp971
Rp972
(dp973
g6
Nsg8
I1
sg9
Nsg35
Nsbssg35
Nsbssg35
NsbsI01
g0
(g1
g2
Ntp974
Rp975
(dp976
g6
Nsg8
I0
sg9
Nsg35
Nsbssg35
Nsbssg35
Nsbssg35
NsbsI1
g0
(g1
g2
Ntp977
Rp978
(dp979
g6
S'contains(better)'
p980
sg8
I0
sg9
(dp981
I01
g0
(g1
g2
Ntp982
Rp983
(dp984
g6
Nsg8
I1
sg9
Nsg35
NsbsNg0
(g1
g2
Ntp985
Rp986
(dp987
g6
Nsg8
I0
sg9
Nsg35
Nsbssg35
Nsbssg35
NsbsNg0
(g1
g2
Ntp988
Rp989
(dp990
g6
S'contains(automatic)'
p991
sg8
I0
sg9
(dp992
I01
g0
(g1
g2
Ntp993
Rp994
(dp995
g6
Vcontains(little)
p996
sg8
I0
sg9
(dp997
I00
g0
(g1
g2
Ntp998
Rp999
(dp1000
g6
Nsg8
I1
sg9
Nsg35
NsbsI01
g0
(g1
g2
Ntp1001
Rp1002
(dp1003
g6
Nsg8
I-1
sg9
Nsg35
Nsbssg35
NsbsNg0
(g1
g2
Ntp1004
Rp1005
(dp1006
g6
S'contains(fast)'
p1007
sg8
I0
sg9
(dp1008
I01
g0
(g1
g2
Ntp1009
Rp1010
(dp1011
g6
g316
sg8
I1
sg9
(dp1012
g11
g0
(g1
g2
Ntp1013
Rp1014
(dp1015
g6
S'contains(even)'
p1016
sg8
I1
sg9
(dp1017
I01
g0
(g1
g2
Ntp1018
Rp1019
(dp1020
g6
S'contains(pretty)'
p1021
sg8
I1
sg9
(dp1022
I01
g0
(g1
g2
Ntp1023
Rp1024
(dp1025
g6
Nsg8
I1
sg9
Nsg35
NsbsNg0
(g1
g2
Ntp1026
Rp1027
(dp1028
g6
Nsg8
I-1
sg9
Nsg35
Nsbssg35
NsbsNg0
(g1
g2
Ntp1029
Rp1030
(dp1031
g6
S'contains(running)'
p1032
sg8
I1
sg9
(dp1033
I01
g0
(g1
g2
Ntp1034
Rp1035
(dp1036
g6
Nsg8
I0
sg9
Nsg35
NsbsNg0
(g1
g2
Ntp1037
Rp1038
(dp1039
g6
S'contains(back)'
p1040
sg8
I1
sg9
(dp1041
I01
g0
(g1
g2
Ntp1042
Rp1043
(dp1044
g6
Nsg8
I0
sg9
Nsg35
NsbsNg0
(g1
g2
Ntp1045
Rp1046
(dp1047
g6
Nsg8
I1
sg9
Nsg35
Nsbssg35
Nsbssg35
Nsbssg35
Nsbsg321
g0
(g1
g2
Ntp1048
Rp1049
(dp1050
g6
Vcontains(big)
p1051
sg8
I1
sg9
(dp1052
I00
g0
(g1
g2
Ntp1053
Rp1054
(dp1055
g6
Nsg8
I0
sg9
Nsg35
NsbsI01
g0
(g1
g2
Ntp1056
Rp1057
(dp1058
g6
Nsg8
I1
sg9
Nsg35
Nsbssg35
Nsbssg35
NsbsNg0
(g1
g2
Ntp1059
Rp1060
(dp1061
g6
S'contains(quick)'
p1062
sg8
I0
sg9
(dp1063
I01
g0
(g1
g2
Ntp1064
Rp1065
(dp1066
g6
g499
sg8
I0
sg9
(dp1067
I0
g0
(g1
g2
Ntp1068
Rp1069
(dp1070
g6
S'contains(never)'
p1071
sg8
I0
sg9
(dp1072
I01
g0
(g1
g2
Ntp1073
Rp1074
(dp1075
g6
Nsg8
I0
sg9
Nsg35
NsbsNg0
(g1
g2
Ntp1076
Rp1077
(dp1078
g6
S'contains(could)'
p1079
sg8
I0
sg9
(dp1080
I01
g0
(g1
g2
Ntp1081
Rp1082
(dp1083
g6
Nsg8
I0
sg9
Nsg35
NsbsNg0
(g1
g2
Ntp1084
Rp1085
(dp1086
g6
S'contains(come)'
p1087
sg8
I0
sg9
(dp1088
I01
g0
(g1
g2
Ntp1089
Rp1090
(dp1091
g6
Nsg8
I-1
sg9
Nsg35
NsbsNg0
(g1
g2
Ntp1092
Rp1093
(dp1094
g6
S'contains(found)'
p1095
sg8
I0
sg9
(dp1096
I01
g0
(g1
g2
Ntp1097
Rp1098
(dp1099
g6
Nsg8
I0
sg9
Nsg35
NsbsNg0
(g1
g2
Ntp1100
Rp1101
(dp1102
g6
S'contains(probably)'
p1103
sg8
I0
sg9
(dp1104
I01
g0
(g1
g2
Ntp1105
Rp1106
(dp1107
g6
Nsg8
I0
sg9
Nsg35
NsbsNg0
(g1
g2
Ntp1108
Rp1109
(dp1110
g6
S'contains(make)'
p1111
sg8
I0
sg9
(dp1112
I01
g0
(g1
g2
Ntp1113
Rp1114
(dp1115
g6
Nsg8
I0
sg9
Nsg35
NsbsNg0
(g1
g2
Ntp1116
Rp1117
(dp1118
g6
S'contains(find)'
p1119
sg8
I0
sg9
(dp1120
I01
g0
(g1
g2
Ntp1121
Rp1122
(dp1123
g6
Nsg8
I0
sg9
Nsg35
NsbsNg0
(g1
g2
Ntp1124
Rp1125
(dp1126
g6
Nsg8
I1
sg9
Nsg35
Nsbssg35
Nsbssg35
Nsbssg35
Nsbssg35
Nsbssg35
Nsbssg35
Nsbssg35
NsbsI1
g0
(g1
g2
Ntp1127
Rp1128
(dp1129
g6
S'contains(start)'
p1130
sg8
I0
sg9
(dp1131
I01
g0
(g1
g2
Ntp1132
Rp1133
(dp1134
g6
Nsg8
I-1
sg9
Nsg35
NsbsNg0
(g1
g2
Ntp1135
Rp1136
(dp1137
g6
Nsg8
I0
sg9
Nsg35
Nsbssg35
Nsbssg35
NsbsNg0
(g1
g2
Ntp1138
Rp1139
(dp1140
g6
S'contains_bigram_pattern(different,type)'
p1141
sg8
I0
sg9
(dp1142
I00
g0
(g1
g2
Ntp1143
Rp1144
(dp1145
g6
S'contains_bigram_pattern(favorite,features)'
p1146
sg8
I0
sg9
(dp1147
I00
g0
(g1
g2
Ntp1148
Rp1149
(dp1150
g6
S'contains_bigram_pattern(few,phones)'
p1151
sg8
I0
sg9
(dp1152
I00
g0
(g1
g2
Ntp1153
Rp1154
(dp1155
g6
S'contains(unfortunately)'
p1156
sg8
I0
sg9
(dp1157
I01
g0
(g1
g2
Ntp1158
Rp1159
(dp1160
g6
S'contains(using)'
p1161
sg8
I-1
sg9
(dp1162
I01
g0
(g1
g2
Ntp1163
Rp1164
(dp1165
g6
Nsg8
I0
sg9
Nsg35
NsbsNg0
(g1
g2
Ntp1166
Rp1167
(dp1168
g6
Nsg8
I-1
sg9
Nsg35
Nsbssg35
NsbsNg0
(g1
g2
Ntp1169
Rp1170
(dp1171
g6
S'contains(powerful)'
p1172
sg8
I0
sg9
(dp1173
I01
g0
(g1
g2
Ntp1174
Rp1175
(dp1176
g6
S'contains(expensive)'
p1177
sg8
I-1
sg9
(dp1178
I01
g0
(g1
g2
Ntp1179
Rp1180
(dp1181
g6
Nsg8
I0
sg9
Nsg35
NsbsNg0
(g1
g2
Ntp1182
Rp1183
(dp1184
g6
Nsg8
I1
sg9
Nsg35
Nsbssg35
NsbsNg0
(g1
g2
Ntp1185
Rp1186
(dp1187
g6
S'contains(difficult)'
p1188
sg8
I0
sg9
(dp1189
I01
g0
(g1
g2
Ntp1190
Rp1191
(dp1192
g6
Vcontains(little)
p1193
sg8
I-1
sg9
(dp1194
I00
g0
(g1
g2
Ntp1195
Rp1196
(dp1197
g6
Vcontains(many)
p1198
sg8
I-1
sg9
(dp1199
I00
g0
(g1
g2
Ntp1200
Rp1201
(dp1202
g6
S'contains(like)'
p1203
sg8
I-1
sg9
(dp1204
I01
g0
(g1
g2
Ntp1205
Rp1206
(dp1207
g6
Nsg8
I1
sg9
Nsg35
NsbsNg0
(g1
g2
Ntp1208
Rp1209
(dp1210
g6
S'contains(would)'
p1211
sg8
I-1
sg9
(dp1212
I01
g0
(g1
g2
Ntp1213
Rp1214
(dp1215
g6
Nsg8
I0
sg9
Nsg35
NsbsNg0
(g1
g2
Ntp1216
Rp1217
(dp1218
g6
S'contains(used)'
p1219
sg8
I-1
sg9
(dp1220
I01
g0
(g1
g2
Ntp1221
Rp1222
(dp1223
g6
Nsg8
I0
sg9
Nsg35
NsbsNg0
(g1
g2
Ntp1224
Rp1225
(dp1226
g6
S'contains(somewhat)'
p1227
sg8
I-1
sg9
(dp1228
I01
g0
(g1
g2
Ntp1229
Rp1230
(dp1231
g6
Nsg8
I0
sg9
Nsg35
NsbsNg0
(g1
g2
Ntp1232
Rp1233
(dp1234
g6
Nsg8
I-1
sg9
Nsg35
Nsbssg35
Nsbssg35
Nsbssg35
Nsbssg35
NsbsI01
g0
(g1
g2
Ntp1235
Rp1236
(dp1237
g6
Nsg8
I0
sg9
Nsg35
Nsbssg35
NsbsI01
g0
(g1
g2
Ntp1238
Rp1239
(dp1240
g6
Nsg8
I0
sg9
Nsg35
Nsbssg35
NsbsNg0
(g1
g2
Ntp1241
Rp1242
(dp1243
g6
S'contains(somewhat)'
p1244
sg8
I0
sg9
(dp1245
I01
g0
(g1
g2
Ntp1246
Rp1247
(dp1248
g6
g172
sg8
I0
sg9
(dp1249
I0
g0
(g1
g2
Ntp1250
Rp1251
(dp1252
g6
g316
sg8
I0
sg9
(dp1253
g11
g0
(g1
g2
Ntp1254
Rp1255
(dp1256
g6
S'contains(working)'
p1257
sg8
I0
sg9
(dp1258
I01
g0
(g1
g2
Ntp1259
Rp1260
(dp1261
g6
Nsg8
I1
sg9
Nsg35
NsbsNg0
(g1
g2
Ntp1262
Rp1263
(dp1264
g6
Nsg8
I0
sg9
Nsg35
Nsbssg35
Nsbsg321
g0
(g1
g2
Ntp1265
Rp1266
(dp1267
g6
Vcontains(many)
p1268
sg8
I-1
sg9
(dp1269
I00
g0
(g1
g2
Ntp1270
Rp1271
(dp1272
g6
S'contains(could)'
p1273
sg8
I-1
sg9
(dp1274
I01
g0
(g1
g2
Ntp1275
Rp1276
(dp1277
g6
Nsg8
I0
sg9
Nsg35
NsbsNg0
(g1
g2
Ntp1278
Rp1279
(dp1280
g6
Vcontains(new)
p1281
sg8
I-1
sg9
(dp1282
I00
g0
(g1
g2
Ntp1283
Rp1284
(dp1285
g6
Nsg8
I-1
sg9
Nsg35
NsbsI01
g0
(g1
g2
Ntp1286
Rp1287
(dp1288
g6
Nsg8
I0
sg9
Nsg35
Nsbssg35
Nsbssg35
NsbsI01
g0
(g1
g2
Ntp1289
Rp1290
(dp1291
g6
Nsg8
I0
sg9
Nsg35
Nsbssg35
Nsbssg35
NsbsI1
g0
(g1
g2
Ntp1292
Rp1293
(dp1294
g6
Nsg8
I0
sg9
Nsg35
Nsbssg35
NsbsNg0
(g1
g2
Ntp1295
Rp1296
(dp1297
g6
S'contains(sharp)'
p1298
sg8
I0
sg9
(dp1299
I01
g0
(g1
g2
Ntp1300
Rp1301
(dp1302
g6
Nsg8
I1
sg9
Nsg35
NsbsNg0
(g1
g2
Ntp1303
Rp1304
(dp1305
g6
S'contains_bigram_pattern(always,keep)'
p1306
sg8
I0
sg9
(dp1307
I00
g0
(g1
g2
Ntp1308
Rp1309
(dp1310
g6
S'contains(removable)'
p1311
sg8
I0
sg9
(dp1312
I01
g0
(g1
g2
Ntp1313
Rp1314
(dp1315
g6
S'contains(expensive)'
p1316
sg8
I1
sg9
(dp1317
I01
g0
(g1
g2
Ntp1318
Rp1319
(dp1320
g6
Nsg8
I0
sg9
Nsg35
NsbsNg0
(g1
g2
Ntp1321
Rp1322
(dp1323
g6
Nsg8
I1
sg9
Nsg35
Nsbssg35
NsbsNg0
(g1
g2
Ntp1324
Rp1325
(dp1326
g6
S'contains_bigram_pattern(decently,sized)'
p1327
sg8
I0
sg9
(dp1328
I00
g0
(g1
g2
Ntp1329
Rp1330
(dp1331
g6
S'contains_bigram_pattern(good,resolution)'
p1332
sg8
I0
sg9
(dp1333
I00
g0
(g1
g2
Ntp1334
Rp1335
(dp1336
g6
S'contains(beautiful)'
p1337
sg8
I0
sg9
(dp1338
I01
g0
(g1
g2
Ntp1339
Rp1340
(dp1341
g6
Vcontains(big)
p1342
sg8
I1
sg9
(dp1343
I00
g0
(g1
g2
Ntp1344
Rp1345
(dp1346
g6
Nsg8
I1
sg9
Nsg35
NsbsI01
g0
(g1
g2
Ntp1347
Rp1348
(dp1349
g6
Nsg8
I0
sg9
Nsg35
Nsbssg35
NsbsNg0
(g1
g2
Ntp1350
Rp1351
(dp1352
g6
S'contains_bigram_pattern(good,results)'
p1353
sg8
I0
sg9
(dp1354
I00
g0
(g1
g2
Ntp1355
Rp1356
(dp1357
g6
S'contains_bigram_pattern(different,ways)'
p1358
sg8
I0
sg9
(dp1359
I00
g0
(g1
g2
Ntp1360
Rp1361
(dp1362
g6
S'contains_bigram_pattern(even,gotten)'
p1363
sg8
I0
sg9
(dp1364
I00
g0
(g1
g2
Ntp1365
Rp1366
(dp1367
g6
S'contains(perfectly)'
p1368
sg8
I0
sg9
(dp1369
I01
g0
(g1
g2
Ntp1370
Rp1371
(dp1372
g6
S'contains(worked)'
p1373
sg8
I0
sg9
(dp1374
I01
g0
(g1
g2
Ntp1375
Rp1376
(dp1377
g6
Nsg8
I1
sg9
Nsg35
NsbsNg0
(g1
g2
Ntp1378
Rp1379
(dp1380
g6
Vcontains(long)
p1381
sg8
I0
sg9
(dp1382
I00
g0
(g1
g2
Ntp1383
Rp1384
(dp1385
g6
Nsg8
I0
sg9
Nsg35
NsbsI01
g0
(g1
g2
Ntp1386
Rp1387
(dp1388
g6
Nsg8
I1
sg9
Nsg35
Nsbssg35
Nsbssg35
NsbsNg0
(g1
g2
Ntp1389
Rp1390
(dp1391
g6
S'contains(superior)'
p1392
sg8
I0
sg9
(dp1393
I01
g0
(g1
g2
Ntp1394
Rp1395
(dp1396
g6
S'contains(instead)'
p1397
sg8
I0
sg9
(dp1398
I01
g0
(g1
g2
Ntp1399
Rp1400
(dp1401
g6
Nsg8
I0
sg9
Nsg35
NsbsNg0
(g1
g2
Ntp1402
Rp1403
(dp1404
g6
Nsg8
I1
sg9
Nsg35
Nsbssg35
NsbsNg0
(g1
g2
Ntp1405
Rp1406
(dp1407
g6
S'emoticon(=))'
p1408
sg8
I0
sg9
(dp1409
I00
g0
(g1
g2
Ntp1410
Rp1411
(dp1412
g6
S'contains(sometimes)'
p1413
sg8
I0
sg9
(dp1414
I01
g0
(g1
g2
Ntp1415
Rp1416
(dp1417
g6
S'pos_feature_adjectives_curated'
p1418
sg8
I0
sg9
(dp1419
g11
g0
(g1
g2
Ntp1420
Rp1421
(dp1422
g6
S'contains(compared)'
p1423
sg8
I-1
sg9
(dp1424
I01
g0
(g1
g2
Ntp1425
Rp1426
(dp1427
g6
Nsg8
I0
sg9
Nsg35
NsbsNg0
(g1
g2
Ntp1428
Rp1429
(dp1430
g6
Nsg8
I-1
sg9
Nsg35
Nsbssg35
Nsbsg321
g0
(g1
g2
Ntp1431
Rp1432
(dp1433
g6
S'contains(must)'
p1434
sg8
I0
sg9
(dp1435
I01
g0
(g1
g2
Ntp1436
Rp1437
(dp1438
g6
Nsg8
I-1
sg9
Nsg35
NsbsNg0
(g1
g2
Ntp1439
Rp1440
(dp1441
g6
Nsg8
I0
sg9
Nsg35
Nsbssg35
Nsbssg35
NsbsNg0
(g1
g2
Ntp1442
Rp1443
(dp1444
g6
S'contains_bigram_pattern(easily,accessible)'
p1445
sg8
I0
sg9
(dp1446
I00
g0
(g1
g2
Ntp1447
Rp1448
(dp1449
g6
Vcontains(happy)
p1450
sg8
I0
sg9
(dp1451
I00
g0
(g1
g2
Ntp1452
Rp1453
(dp1454
g6
S'contains(anywhere)'
p1455
sg8
I0
sg9
(dp1456
I01
g0
(g1
g2
Ntp1457
Rp1458
(dp1459
g6
S'contains(take)'
p1460
sg8
I0
sg9
(dp1461
I01
g0
(g1
g2
Ntp1462
Rp1463
(dp1464
g6
Nsg8
I0
sg9
Nsg35
NsbsNg0
(g1
g2
Ntp1465
Rp1466
(dp1467
g6
Nsg8
I1
sg9
Nsg35
Nsbssg35
NsbsNg0
(g1
g2
Ntp1468
Rp1469
(dp1470
g6
S'contains(navigate)'
p1471
sg8
I0
sg9
(dp1472
I01
g0
(g1
g2
Ntp1473
Rp1474
(dp1475
g6
S'contains(simple)'
p1476
sg8
I-1
sg9
(dp1477
I01
g0
(g1
g2
Ntp1478
Rp1479
(dp1480
g6
Nsg8
I1
sg9
Nsg35
NsbsNg0
(g1
g2
Ntp1481
Rp1482
(dp1483
g6
Nsg8
I-1
sg9
Nsg35
Nsbssg35
NsbsNg0
(g1
g2
Ntp1484
Rp1485
(dp1486
g6
Nsg8
I0
sg9
Nsg35
Nsbssg35
Nsbssg35
NsbsI01
g0
(g1
g2
Ntp1487
Rp1488
(dp1489
g6
S'contains(came)'
p1490
sg8
I1
sg9
(dp1491
I01
g0
(g1
g2
Ntp1492
Rp1493
(dp1494
g6
Nsg8
I0
sg9
Nsg35
NsbsNg0
(g1
g2
Ntp1495
Rp1496
(dp1497
g6
g316
sg8
I1
sg9
(dp1498
g11
g0
(g1
g2
Ntp1499
Rp1500
(dp1501
g6
Nsg8
I1
sg9
Nsg35
Nsbsg321
g0
(g1
g2
Ntp1502
Rp1503
(dp1504
g6
Nsg8
I0
sg9
Nsg35
Nsbssg35
Nsbssg35
Nsbssg35
NsbsI01
g0
(g1
g2
Ntp1505
Rp1506
(dp1507
g6
Nsg8
I1
sg9
Nsg35
Nsbssg35
Nsbssg35
NsbsI01
g0
(g1
g2
Ntp1508
Rp1509
(dp1510
g6
Nsg8
I1
sg9
Nsg35
Nsbssg35
Nsbssg35
Nsbssg35
NsbsI01
g0
(g1
g2
Ntp1511
Rp1512
(dp1513
g6
Nsg8
I1
sg9
Nsg35
Nsbssg35
NsbsI01
g0
(g1
g2
Ntp1514
Rp1515
(dp1516
g6
Nsg8
I1
sg9
Nsg35
Nsbssg35
NsbsI01
g0
(g1
g2
Ntp1517
Rp1518
(dp1519
g6
Nsg8
I1
sg9
Nsg35
Nsbssg35
Nsbssg35
NsbsI01
g0
(g1
g2
Ntp1520
Rp1521
(dp1522
g6
S'contains(around)'
p1523
sg8
I1
sg9
(dp1524
I01
g0
(g1
g2
Ntp1525
Rp1526
(dp1527
g6
Nsg8
I0
sg9
Nsg35
NsbsNg0
(g1
g2
Ntp1528
Rp1529
(dp1530
g6
Nsg8
I1
sg9
Nsg35
Nsbssg35
Nsbssg35
NsbsI01
g0
(g1
g2
Ntp1531
Rp1532
(dp1533
g6
Nsg8
I1
sg9
Nsg35
Nsbssg35
Nsbssg35
NsbsI01
g0
(g1
g2
Ntp1534
Rp1535
(dp1536
g6
Nsg8
I1
sg9
Nsg35
Nsbssg35
Nsbssg35
Nsbssg35
Nsbssg35
Nsbssg35
Nsbssg35
NsbsI01
g0
(g1
g2
Ntp1537
Rp1538
(dp1539
g6
Nsg8
I1
sg9
Nsg35
Nsbssg35
NsbsI01
g0
(g1
g2
Ntp1540
Rp1541
(dp1542
g6
Nsg8
I1
sg9
Nsg35
Nsbssg35
NsbsI01
g0
(g1
g2
Ntp1543
Rp1544
(dp1545
g6
Nsg8
I1
sg9
Nsg35
Nsbssg35
Nsbssg35
Nsbssg35
Nsbssg35
Nsbssg35
Nsbssg35
Nsbssg35
Nsbssg35
Nsbssg35
NsbsI01
g0
(g1
g2
Ntp1546
Rp1547
(dp1548
g6
S'contains(turn)'
p1549
sg8
I-1
sg9
(dp1550
I01
g0
(g1
g2
Ntp1551
Rp1552
(dp1553
g6
Nsg8
I0
sg9
Nsg35
NsbsNg0
(g1
g2
Ntp1554
Rp1555
(dp1556
g6
Vcontains(many)
p1557
sg8
I-1
sg9
(dp1558
I00
g0
(g1
g2
Ntp1559
Rp1560
(dp1561
g6
Vcontains(digital)
p1562
sg8
I-1
sg9
(dp1563
I00
g0
(g1
g2
Ntp1564
Rp1565
(dp1566
g6
S'contains(really)'
p1567
sg8
I-1
sg9
(dp1568
I01
g0
(g1
g2
Ntp1569
Rp1570
(dp1571
g6
Nsg8
I0
sg9
Nsg35
NsbsNg0
(g1
g2
Ntp1572
Rp1573
(dp1574
g6
S'contains(tried)'
p1575
sg8
I-1
sg9
(dp1576
I01
g0
(g1
g2
Ntp1577
Rp1578
(dp1579
g6
Nsg8
I0
sg9
Nsg35
NsbsNg0
(g1
g2
Ntp1580
Rp1581
(dp1582
g6
S'contains(difficult)'
p1583
sg8
I-1
sg9
(dp1584
I01
g0
(g1
g2
Ntp1585
Rp1586
(dp1587
g6
Nsg8
I0
sg9
Nsg35
NsbsNg0
(g1
g2
Ntp1588
Rp1589
(dp1590
g6
S'contains(fast)'
p1591
sg8
I-1
sg9
(dp1592
I01
g0
(g1
g2
Ntp1593
Rp1594
(dp1595
g6
Nsg8
I1
sg9
Nsg35
NsbsNg0
(g1
g2
Ntp1596
Rp1597
(dp1598
g6
Nsg8
I-1
sg9
Nsg35
Nsbssg35
Nsbssg35
Nsbssg35
Nsbssg35
NsbsI01
g0
(g1
g2
Ntp1599
Rp1600
(dp1601
g6
Nsg8
I0
sg9
Nsg35
Nsbssg35
NsbsI01
g0
(g1
g2
Ntp1602
Rp1603
(dp1604
g6
Nsg8
I0
sg9
Nsg35
Nsbssg35
Nsbssg35
Nsbssg35
NsbsI01
g0
(g1
g2
Ntp1605
Rp1606
(dp1607
g6
S'contains(would)'
p1608
sg8
I1
sg9
(dp1609
I01
g0
(g1
g2
Ntp1610
Rp1611
(dp1612
g6
S'contains(since)'
p1613
sg8
I0
sg9
(dp1614
I01
g0
(g1
g2
Ntp1615
Rp1616
(dp1617
g6
Nsg8
I-1
sg9
Nsg35
NsbsNg0
(g1
g2
Ntp1618
Rp1619
(dp1620
g6
Nsg8
I0
sg9
Nsg35
Nsbssg35
NsbsNg0
(g1
g2
Ntp1621
Rp1622
(dp1623
g6
S'contains(free)'
p1624
sg8
I1
sg9
(dp1625
I01
g0
(g1
g2
Ntp1626
Rp1627
(dp1628
g6
Nsg8
I0
sg9
Nsg35
NsbsNg0
(g1
g2
Ntp1629
Rp1630
(dp1631
g6
S'contains(holds)'
p1632
sg8
I1
sg9
(dp1633
I01
g0
(g1
g2
Ntp1634
Rp1635
(dp1636
g6
Nsg8
I0
sg9
Nsg35
NsbsNg0
(g1
g2
Ntp1637
Rp1638
(dp1639
g6
S'contains(really)'
p1640
sg8
I1
sg9
(dp1641
I01
g0
(g1
g2
Ntp1642
Rp1643
(dp1644
g6
Nsg8
I0
sg9
Nsg35
NsbsNg0
(g1
g2
Ntp1645
Rp1646
(dp1647
g6
S'emoticon(=))'
p1648
sg8
I1
sg9
(dp1649
I00
g0
(g1
g2
Ntp1650
Rp1651
(dp1652
g6
Vcontains(slow)
p1653
sg8
I1
sg9
(dp1654
I00
g0
(g1
g2
Ntp1655
Rp1656
(dp1657
g6
Nsg8
I1
sg9
Nsg35
NsbsI01
g0
(g1
g2
Ntp1658
Rp1659
(dp1660
g6
Nsg8
I0
sg9
Nsg35
Nsbssg35
NsbsI01
g0
(g1
g2
Ntp1661
Rp1662
(dp1663
g6
Nsg8
I0
sg9
Nsg35
Nsbssg35
Nsbssg35
Nsbssg35
Nsbssg35
Nsbssg35
Nsbssg35
Nsbssg35
Nsbssg35
Nsbssg35
Nsbssg35
NsbsI01
g0
(g1
g2
Ntp1664
Rp1665
(dp1666
g6
g316
sg8
I0
sg9
(dp1667
g11
g0
(g1
g2
Ntp1668
Rp1669
(dp1670
g6
S'contains(quickly)'
p1671
sg8
I-1
sg9
(dp1672
I01
g0
(g1
g2
Ntp1673
Rp1674
(dp1675
g6
Nsg8
I-1
sg9
Nsg35
NsbsNg0
(g1
g2
Ntp1676
Rp1677
(dp1678
g6
S'contains(using)'
p1679
sg8
I1
sg9
(dp1680
I01
g0
(g1
g2
Ntp1681
Rp1682
(dp1683
g6
Nsg8
I0
sg9
Nsg35
NsbsNg0
(g1
g2
Ntp1684
Rp1685
(dp1686
g6
S'contains(also)'
p1687
sg8
I1
sg9
(dp1688
I01
g0
(g1
g2
Ntp1689
Rp1690
(dp1691
g6
Nsg8
I0
sg9
Nsg35
NsbsNg0
(g1
g2
Ntp1692
Rp1693
(dp1694
g6
Vcontains(drive)
p1695
sg8
I1
sg9
(dp1696
I00
g0
(g1
g2
Ntp1697
Rp1698
(dp1699
g6
S'contains(must)'
p1700
sg8
I1
sg9
(dp1701
I01
g0
(g1
g2
Ntp1702
Rp1703
(dp1704
g6
Nsg8
I0
sg9
Nsg35
NsbsNg0
(g1
g2
Ntp1705
Rp1706
(dp1707
g6
S'contains(expect)'
p1708
sg8
I1
sg9
(dp1709
I01
g0
(g1
g2
Ntp1710
Rp1711
(dp1712
g6
Nsg8
I-1
sg9
Nsg35
NsbsNg0
(g1
g2
Ntp1713
Rp1714
(dp1715
g6
S'contains(especially)'
p1716
sg8
I1
sg9
(dp1717
I01
g0
(g1
g2
Ntp1718
Rp1719
(dp1720
g6
Nsg8
I-1
sg9
Nsg35
NsbsNg0
(g1
g2
Ntp1721
Rp1722
(dp1723
g6
Nsg8
I1
sg9
Nsg35
Nsbssg35
Nsbssg35
Nsbssg35
NsbsI01
g0
(g1
g2
Ntp1724
Rp1725
(dp1726
g6
Nsg8
I-1
sg9
Nsg35
Nsbssg35
Nsbssg35
Nsbssg35
Nsbssg35
Nsbsg321
g0
(g1
g2
Ntp1727
Rp1728
(dp1729
g6
g499
sg8
I0
sg9
(dp1730
I1
g0
(g1
g2
Ntp1731
Rp1732
(dp1733
g6
S'contains(like)'
p1734
sg8
I0
sg9
(dp1735
I01
g0
(g1
g2
Ntp1736
Rp1737
(dp1738
g6
Nsg8
I0
sg9
Nsg35
NsbsNg0
(g1
g2
Ntp1739
Rp1740
(dp1741
g6
S'contains(understand)'
p1742
sg8
I0
sg9
(dp1743
I01
g0
(g1
g2
Ntp1744
Rp1745
(dp1746
g6
Nsg8
I1
sg9
Nsg35
NsbsNg0
(g1
g2
Ntp1747
Rp1748
(dp1749
g6
S'contains(also)'
p1750
sg8
I0
sg9
(dp1751
I01
g0
(g1
g2
Ntp1752
Rp1753
(dp1754
g6
Nsg8
I1
sg9
Nsg35
NsbsNg0
(g1
g2
Ntp1755
Rp1756
(dp1757
g6
Vcontains(hard)
p1758
sg8
I0
sg9
(dp1759
I00
g0
(g1
g2
Ntp1760
Rp1761
(dp1762
g6
S'contains(find)'
p1763
sg8
I0
sg9
(dp1764
I01
g0
(g1
g2
Ntp1765
Rp1766
(dp1767
g6
Nsg8
I0
sg9
Nsg35
NsbsNg0
(g1
g2
Ntp1768
Rp1769
(dp1770
g6
Nsg8
I-1
sg9
Nsg35
Nsbssg35
NsbsI01
g0
(g1
g2
Ntp1771
Rp1772
(dp1773
g6
Nsg8
I1
sg9
Nsg35
Nsbssg35
Nsbssg35
Nsbssg35
Nsbssg35
NsbsI2
g0
(g1
g2
Ntp1774
Rp1775
(dp1776
g6
Nsg8
I0
sg9
Nsg35
NsbsI3
g0
(g1
g2
Ntp1777
Rp1778
(dp1779
g6
Nsg8
I1
sg9
Nsg35
Nsbssg35
Nsbssg35
Nsbssg35
Nsbssg35
Nsbssg35
Nsbssg35
NsbsI01
g0
(g1
g2
Ntp1780
Rp1781
(dp1782
g6
S'contains(would)'
p1783
sg8
I-1
sg9
(dp1784
I01
g0
(g1
g2
Ntp1785
Rp1786
(dp1787
g6
S'contains(least)'
p1788
sg8
I-1
sg9
(dp1789
I01
g0
(g1
g2
Ntp1790
Rp1791
(dp1792
g6
Nsg8
I-1
sg9
Nsg35
NsbsNg0
(g1
g2
Ntp1793
Rp1794
(dp1795
g6
Nsg8
I0
sg9
Nsg35
Nsbssg35
NsbsNg0
(g1
g2
Ntp1796
Rp1797
(dp1798
g6
g499
sg8
I0
sg9
(dp1799
I1
g0
(g1
g2
Ntp1800
Rp1801
(dp1802
g6
S'contains(using)'
p1803
sg8
I1
sg9
(dp1804
I01
g0
(g1
g2
Ntp1805
Rp1806
(dp1807
g6
Nsg8
I-1
sg9
Nsg35
NsbsNg0
(g1
g2
Ntp1808
Rp1809
(dp1810
g6
S'contains(holds)'
p1811
sg8
I1
sg9
(dp1812
I01
g0
(g1
g2
Ntp1813
Rp1814
(dp1815
g6
Nsg8
I0
sg9
Nsg35
NsbsNg0
(g1
g2
Ntp1816
Rp1817
(dp1818
g6
S'contains(used)'
p1819
sg8
I1
sg9
(dp1820
I01
g0
(g1
g2
Ntp1821
Rp1822
(dp1823
g6
Nsg8
I0
sg9
Nsg35
NsbsNg0
(g1
g2
Ntp1824
Rp1825
(dp1826
g6
g172
sg8
I1
sg9
(dp1827
I0
g0
(g1
g2
Ntp1828
Rp1829
(dp1830
g6
S'contains(could)'
p1831
sg8
I1
sg9
(dp1832
I01
g0
(g1
g2
Ntp1833
Rp1834
(dp1835
g6
Nsg8
I0
sg9
Nsg35
NsbsNg0
(g1
g2
Ntp1836
Rp1837
(dp1838
g6
S'contains(always)'
p1839
sg8
I1
sg9
(dp1840
I01
g0
(g1
g2
Ntp1841
Rp1842
(dp1843
g6
Nsg8
I-1
sg9
Nsg35
NsbsNg0
(g1
g2
Ntp1844
Rp1845
(dp1846
g6
S'contains(pretty)'
p1847
sg8
I1
sg9
(dp1848
I01
g0
(g1
g2
Ntp1849
Rp1850
(dp1851
g6
Nsg8
I-1
sg9
Nsg35
NsbsNg0
(g1
g2
Ntp1852
Rp1853
(dp1854
g6
S'contains(find)'
p1855
sg8
I1
sg9
(dp1856
I01
g0
(g1
g2
Ntp1857
Rp1858
(dp1859
g6
Nsg8
I0
sg9
Nsg35
NsbsNg0
(g1
g2
Ntp1860
Rp1861
(dp1862
g6
Nsg8
I1
sg9
Nsg35
Nsbssg35
Nsbssg35
Nsbssg35
Nsbssg35
NsbsI1
g0
(g1
g2
Ntp1863
Rp1864
(dp1865
g6
Nsg8
I0
sg9
Nsg35
Nsbssg35
Nsbssg35
Nsbssg35
Nsbssg35
NsbsI2
g0
(g1
g2
Ntp1866
Rp1867
(dp1868
g6
S'contains_bigram_pattern(good,router)'
p1869
sg8
I0
sg9
(dp1870
I00
g0
(g1
g2
Ntp1871
Rp1872
(dp1873
g6
Nsg8
I0
sg9
Nsg35
NsbsI01
g0
(g1
g2
Ntp1874
Rp1875
(dp1876
g6
Nsg8
I1
sg9
Nsg35
Nsbssg35
NsbsI3
g0
(g1
g2
Ntp1877
Rp1878
(dp1879
g6
Nsg8
I1
sg9
Nsg35
Nsbssg35
Nsbssg35
Nsbssg35
NsbsI01
g0
(g1
g2
Ntp1880
Rp1881
(dp1882
g6
g1418
sg8
I-1
sg9
(dp1883
g11
g0
(g1
g2
Ntp1884
Rp1885
(dp1886
g6
S'contains(would)'
p1887
sg8
I0
sg9
(dp1888
I01
g0
(g1
g2
Ntp1889
Rp1890
(dp1891
g6
Nsg8
I-1
sg9
Nsg35
NsbsNg0
(g1
g2
Ntp1892
Rp1893
(dp1894
g6
Nsg8
I0
sg9
Nsg35
Nsbssg35
Nsbsg321
g0
(g1
g2
Ntp1895
Rp1896
(dp1897
g6
S'contains(also)'
p1898
sg8
I-1
sg9
(dp1899
I01
g0
(g1
g2
Ntp1900
Rp1901
(dp1902
g6
Nsg8
I-1
sg9
Nsg35
NsbsNg0
(g1
g2
Ntp1903
Rp1904
(dp1905
g6
S'contains(expect)'
p1906
sg8
I-1
sg9
(dp1907
I01
g0
(g1
g2
Ntp1908
Rp1909
(dp1910
g6
Nsg8
I-1
sg9
Nsg35
NsbsNg0
(g1
g2
Ntp1911
Rp1912
(dp1913
g6
Nsg8
I1
sg9
Nsg35
Nsbssg35
Nsbssg35
Nsbssg35
Nsbssg35
Nsbssg35
Nsbssg35
Nsbssg35
Nsbssg35
NsbsS'patternHigh'
p1914
g0
(g1
g2
Ntp1915
Rp1916
(dp1917
g6
Vcontains(long)
p1918
sg8
I-1
sg9
(dp1919
I00
g0
(g1
g2
Ntp1920
Rp1921
(dp1922
g6
S'contains_bigram_pattern(technical,support)'
p1923
sg8
I-1
sg9
(dp1924
I00
g0
(g1
g2
Ntp1925
Rp1926
(dp1927
g6
S'contains(think)'
p1928
sg8
I-1
sg9
(dp1929
I01
g0
(g1
g2
Ntp1930
Rp1931
(dp1932
g6
S'contains(major)'
p1933
sg8
I0
sg9
(dp1934
I01
g0
(g1
g2
Ntp1935
Rp1936
(dp1937
g6
Nsg8
I-1
sg9
Nsg35
NsbsNg0
(g1
g2
Ntp1938
Rp1939
(dp1940
g6
Nsg8
I0
sg9
Nsg35
Nsbssg35
NsbsNg0
(g1
g2
Ntp1941
Rp1942
(dp1943
g6
S'contains(found)'
p1944
sg8
I-1
sg9
(dp1945
I01
g0
(g1
g2
Ntp1946
Rp1947
(dp1948
g6
Nsg8
I1
sg9
Nsg35
NsbsNg0
(g1
g2
Ntp1949
Rp1950
(dp1951
g6
S'contains(seems)'
p1952
sg8
I-1
sg9
(dp1953
I01
g0
(g1
g2
Ntp1954
Rp1955
(dp1956
g6
Nsg8
I0
sg9
Nsg35
NsbsNg0
(g1
g2
Ntp1957
Rp1958
(dp1959
g6
S'contains(worth)'
p1960
sg8
I-1
sg9
(dp1961
I01
g0
(g1
g2
Ntp1962
Rp1963
(dp1964
g6
Nsg8
I0
sg9
Nsg35
NsbsNg0
(g1
g2
Ntp1965
Rp1966
(dp1967
g6
S'contains_bigram_pattern(only,used)'
p1968
sg8
I-1
sg9
(dp1969
I00
g0
(g1
g2
Ntp1970
Rp1971
(dp1972
g6
S'contains(easier)'
p1973
sg8
I-1
sg9
(dp1974
I01
g0
(g1
g2
Ntp1975
Rp1976
(dp1977
g6
Nsg8
I1
sg9
Nsg35
NsbsNg0
(g1
g2
Ntp1978
Rp1979
(dp1980
g6
S'contains(bought)'
p1981
sg8
I-1
sg9
(dp1982
I01
g0
(g1
g2
Ntp1983
Rp1984
(dp1985
g6
Nsg8
I0
sg9
Nsg35
NsbsNg0
(g1
g2
Ntp1986
Rp1987
(dp1988
g6
S'contains_bigram_pattern(not,let)'
p1989
sg8
I-1
sg9
(dp1990
I00
g0
(g1
g2
Ntp1991
Rp1992
(dp1993
g6
S'contains_bigram_pattern(too,small)'
p1994
sg8
I-1
sg9
(dp1995
I00
g0
(g1
g2
Ntp1996
Rp1997
(dp1998
g6
S'contains(song)'
p1999
sg8
I-1
sg9
(dp2000
I01
g0
(g1
g2
Ntp2001
Rp2002
(dp2003
g6
Nsg8
I0
sg9
Nsg35
NsbsNg0
(g1
g2
Ntp2004
Rp2005
(dp2006
g6
Nsg8
I-1
sg9
Nsg35
Nsbssg35
NsbsI01
g0
(g1
g2
Ntp2007
Rp2008
(dp2009
g6
Nsg8
I0
sg9
Nsg35
Nsbssg35
NsbsI01
g0
(g1
g2
Ntp2010
Rp2011
(dp2012
g6
Nsg8
I0
sg9
Nsg35
Nsbssg35
Nsbssg35
Nsbssg35
NsbsI01
g0
(g1
g2
Ntp2013
Rp2014
(dp2015
g6
Nsg8
I1
sg9
Nsg35
Nsbssg35
Nsbssg35
Nsbssg35
Nsbssg35
Nsbssg35
NsbsI01
g0
(g1
g2
Ntp2016
Rp2017
(dp2018
g6
Nsg8
I0
sg9
Nsg35
Nsbssg35
NsbsI01
g0
(g1
g2
Ntp2019
Rp2020
(dp2021
g6
S'contains(like)'
p2022
sg8
I0
sg9
(dp2023
I01
g0
(g1
g2
Ntp2024
Rp2025
(dp2026
g6
Nsg8
I0
sg9
Nsg35
NsbsNg0
(g1
g2
Ntp2027
Rp2028
(dp2029
g6
Nsg8
I1
sg9
Nsg35
Nsbssg35
Nsbssg35
Nsbsg321
g0
(g1
g2
Ntp2030
Rp2031
(dp2032
g6
g316
sg8
I0
sg9
(dp2033
g11
g0
(g1
g2
Ntp2034
Rp2035
(dp2036
g6
g499
sg8
I0
sg9
(dp2037
I0
g0
(g1
g2
Ntp2038
Rp2039
(dp2040
g6
S'contains(play)'
p2041
sg8
I0
sg9
(dp2042
I01
g0
(g1
g2
Ntp2043
Rp2044
(dp2045
g6
g172
sg8
I-1
sg9
(dp2046
I0
g0
(g1
g2
Ntp2047
Rp2048
(dp2049
g6
Nsg8
I-1
sg9
Nsg35
NsbsI1
g0
(g1
g2
Ntp2050
Rp2051
(dp2052
g6
Nsg8
I1
sg9
Nsg35
Nsbssg35
NsbsNg0
(g1
g2
Ntp2053
Rp2054
(dp2055
g6
S'contains(different)'
p2056
sg8
I0
sg9
(dp2057
I01
g0
(g1
g2
Ntp2058
Rp2059
(dp2060
g6
Nsg8
I-1
sg9
Nsg35
NsbsNg0
(g1
g2
Ntp2061
Rp2062
(dp2063
g6
S'contains(find)'
p2064
sg8
I0
sg9
(dp2065
I01
g0
(g1
g2
Ntp2066
Rp2067
(dp2068
g6
g1418
sg8
I1
sg9
(dp2069
g11
g0
(g1
g2
Ntp2070
Rp2071
(dp2072
g6
Nsg8
I-1
sg9
Nsg35
Nsbsg321
g0
(g1
g2
Ntp2073
Rp2074
(dp2075
g6
Nsg8
I1
sg9
Nsg35
Nsbssg35
NsbsNg0
(g1
g2
Ntp2076
Rp2077
(dp2078
g6
S'contains(never)'
p2079
sg8
I0
sg9
(dp2080
I01
g0
(g1
g2
Ntp2081
Rp2082
(dp2083
g6
Nsg8
I-1
sg9
Nsg35
NsbsNg0
(g1
g2
Ntp2084
Rp2085
(dp2086
g6
S'contains(well)'
p2087
sg8
I0
sg9
(dp2088
I01
g0
(g1
g2
Ntp2089
Rp2090
(dp2091
g6
Nsg8
I-1
sg9
Nsg35
NsbsNg0
(g1
g2
Ntp2092
Rp2093
(dp2094
g6
S'contains_bigram_pattern(not,working)'
p2095
sg8
I0
sg9
(dp2096
I00
g0
(g1
g2
Ntp2097
Rp2098
(dp2099
g6
S'contains(seems)'
p2100
sg8
I0
sg9
(dp2101
I01
g0
(g1
g2
Ntp2102
Rp2103
(dp2104
g6
Nsg8
I-1
sg9
Nsg35
NsbsNg0
(g1
g2
Ntp2105
Rp2106
(dp2107
g6
S'contains_bigram_pattern(not,seem)'
p2108
sg8
I0
sg9
(dp2109
I00
g0
(g1
g2
Ntp2110
Rp2111
(dp2112
g6
S"contains_bigram_pattern(n't,buy)"
p2113
sg8
I0
sg9
(dp2114
I00
g0
(g1
g2
Ntp2115
Rp2116
(dp2117
g6
S'contains_bigram_pattern(not,recognize)'
p2118
sg8
I0
sg9
(dp2119
I00
g0
(g1
g2
Ntp2120
Rp2121
(dp2122
g6
S'contains_bigram_pattern(not,read)'
p2123
sg8
I0
sg9
(dp2124
I00
g0
(g1
g2
Ntp2125
Rp2126
(dp2127
g6
S'contains(owned)'
p2128
sg8
I0
sg9
(dp2129
I01
g0
(g1
g2
Ntp2130
Rp2131
(dp2132
g6
Nsg8
I1
sg9
Nsg35
NsbsNg0
(g1
g2
Ntp2133
Rp2134
(dp2135
g6
S'contains(could)'
p2136
sg8
I0
sg9
(dp2137
I01
g0
(g1
g2
Ntp2138
Rp2139
(dp2140
g6
S'contains(works)'
p2141
sg8
I0
sg9
(dp2142
I01
g0
(g1
g2
Ntp2143
Rp2144
(dp2145
g6
Nsg8
I1
sg9
Nsg35
NsbsNg0
(g1
g2
Ntp2146
Rp2147
(dp2148
g6
S"contains_bigram_pattern(n't,have)"
p2149
sg8
I0
sg9
(dp2150
I00
g0
(g1
g2
Ntp2151
Rp2152
(dp2153
g6
S"contains_bigram_pattern(n't,know)"
p2154
sg8
I0
sg9
(dp2155
I00
g0
(g1
g2
Ntp2156
Rp2157
(dp2158
g6
Nsg8
I-1
sg9
Nsg35
NsbsI01
g0
(g1
g2
Ntp2159
Rp2160
(dp2161
g6
Nsg8
I0
sg9
Nsg35
Nsbssg35
NsbsI01
g0
(g1
g2
Ntp2162
Rp2163
(dp2164
g6
Nsg8
I0
sg9
Nsg35
Nsbssg35
Nsbssg35
NsbsNg0
(g1
g2
Ntp2165
Rp2166
(dp2167
g6
S'contains(listen)'
p2168
sg8
I-1
sg9
(dp2169
I01
g0
(g1
g2
Ntp2170
Rp2171
(dp2172
g6
Nsg8
I-1
sg9
Nsg35
NsbsNg0
(g1
g2
Ntp2173
Rp2174
(dp2175
g6
S'contains(extra)'
p2176
sg8
I-1
sg9
(dp2177
I01
g0
(g1
g2
Ntp2178
Rp2179
(dp2180
g6
Nsg8
I1
sg9
Nsg35
NsbsNg0
(g1
g2
Ntp2181
Rp2182
(dp2183
g6
S'contains(look)'
p2184
sg8
I-1
sg9
(dp2185
I01
g0
(g1
g2
Ntp2186
Rp2187
(dp2188
g6
Nsg8
I1
sg9
Nsg35
NsbsNg0
(g1
g2
Ntp2189
Rp2190
(dp2191
g6
S'contains(needs)'
p2192
sg8
I-1
sg9
(dp2193
I01
g0
(g1
g2
Ntp2194
Rp2195
(dp2196
g6
Nsg8
I-1
sg9
Nsg35
NsbsNg0
(g1
g2
Ntp2197
Rp2198
(dp2199
g6
S'contains(seen)'
p2200
sg8
I-1
sg9
(dp2201
I01
g0
(g1
g2
Ntp2202
Rp2203
(dp2204
g6
Nsg8
I1
sg9
Nsg35
NsbsNg0
(g1
g2
Ntp2205
Rp2206
(dp2207
g6
S'contains(setting)'
p2208
sg8
I-1
sg9
(dp2209
I01
g0
(g1
g2
Ntp2210
Rp2211
(dp2212
g6
Nsg8
I-1
sg9
Nsg35
NsbsNg0
(g1
g2
Ntp2213
Rp2214
(dp2215
g6
S'contains(special)'
p2216
sg8
I-1
sg9
(dp2217
I01
g0
(g1
g2
Ntp2218
Rp2219
(dp2220
g6
Nsg8
I1
sg9
Nsg35
NsbsNg0
(g1
g2
Ntp2221
Rp2222
(dp2223
g6
S'contains(open)'
p2224
sg8
I-1
sg9
(dp2225
I01
g0
(g1
g2
Ntp2226
Rp2227
(dp2228
g6
Nsg8
I-1
sg9
Nsg35
NsbsNg0
(g1
g2
Ntp2229
Rp2230
(dp2231
g6
S'contains_bigram_pattern(only,used)'
p2232
sg8
I-1
sg9
(dp2233
I00
g0
(g1
g2
Ntp2234
Rp2235
(dp2236
g6
S'contains(easier)'
p2237
sg8
I-1
sg9
(dp2238
I01
g0
(g1
g2
Ntp2239
Rp2240
(dp2241
g6
Nsg8
I-1
sg9
Nsg35
NsbsNg0
(g1
g2
Ntp2242
Rp2243
(dp2244
g6
S'contains_bigram_pattern(more,durable)'
p2245
sg8
I-1
sg9
(dp2246
I00
g0
(g1
g2
Ntp2247
Rp2248
(dp2249
g6
S'contains(take)'
p2250
sg8
I-1
sg9
(dp2251
I01
g0
(g1
g2
Ntp2252
Rp2253
(dp2254
g6
Nsg8
I-1
sg9
Nsg35
NsbsNg0
(g1
g2
Ntp2255
Rp2256
(dp2257
g6
S'contains(love)'
p2258
sg8
I-1
sg9
(dp2259
I01
g0
(g1
g2
Ntp2260
Rp2261
(dp2262
g6
S'contains_bigram_pattern(very,useful)'
p2263
sg8
I1
sg9
(dp2264
I00
g0
(g1
g2
Ntp2265
Rp2266
(dp2267
g6
Nsg8
I1
sg9
Nsg35
NsbsI01
g0
(g1
g2
Ntp2268
Rp2269
(dp2270
g6
Nsg8
I0
sg9
Nsg35
Nsbssg35
NsbsNg0
(g1
g2
Ntp2271
Rp2272
(dp2273
g6
S'contains_bigram_pattern(very,useful)'
p2274
sg8
I-1
sg9
(dp2275
I00
g0
(g1
g2
Ntp2276
Rp2277
(dp2278
g6
S'contains(holds)'
p2279
sg8
I-1
sg9
(dp2280
I01
g0
(g1
g2
Ntp2281
Rp2282
(dp2283
g6
Nsg8
I1
sg9
Nsg35
NsbsNg0
(g1
g2
Ntp2284
Rp2285
(dp2286
g6
S'contains_bigram_pattern(not,find)'
p2287
sg8
I-1
sg9
(dp2288
I00
g0
(g1
g2
Ntp2289
Rp2290
(dp2291
g6
S'contains_bigram_pattern(only,beef)'
p2292
sg8
I-1
sg9
(dp2293
I00
g0
(g1
g2
Ntp2294
Rp2295
(dp2296
g6
S'contains_bigram_pattern(not,help)'
p2297
sg8
I-1
sg9
(dp2298
I00
g0
(g1
g2
Ntp2299
Rp2300
(dp2301
g6
S"contains_bigram_pattern(n't,answer)"
p2302
sg8
I-1
sg9
(dp2303
I00
g0
(g1
g2
Ntp2304
Rp2305
(dp2306
g6
S"contains_bigram_pattern(n't,fit)"
p2307
sg8
I-1
sg9
(dp2308
I00
g0
(g1
g2
Ntp2309
Rp2310
(dp2311
g6
S'contains(somewhat)'
p2312
sg8
I-1
sg9
(dp2313
I01
g0
(g1
g2
Ntp2314
Rp2315
(dp2316
g6
Nsg8
I-1
sg9
Nsg35
NsbsNg0
(g1
g2
Ntp2317
Rp2318
(dp2319
g6
S'contains(found)'
p2320
sg8
I-1
sg9
(dp2321
I01
g0
(g1
g2
Ntp2322
Rp2323
(dp2324
g6
Nsg8
I-1
sg9
Nsg35
NsbsNg0
(g1
g2
Ntp2325
Rp2326
(dp2327
g6
S"contains_bigram_pattern(n't,cover)"
p2328
sg8
I-1
sg9
(dp2329
I00
g0
(g1
g2
Ntp2330
Rp2331
(dp2332
g6
S"contains_bigram_pattern(n't,include)"
p2333
sg8
I-1
sg9
(dp2334
I00
g0
(g1
g2
Ntp2335
Rp2336
(dp2337
g6
S'contains_bigram_pattern(not,allow)'
p2338
sg8
I-1
sg9
(dp2339
I00
g0
(g1
g2
Ntp2340
Rp2341
(dp2342
g6
S'contains(standard)'
p2343
sg8
I0
sg9
(dp2344
I01
g0
(g1
g2
Ntp2345
Rp2346
(dp2347
g6
Nsg8
I-1
sg9
Nsg35
NsbsNg0
(g1
g2
Ntp2348
Rp2349
(dp2350
g6
S'contains_bigram_pattern(not,responding)'
p2351
sg8
I0
sg9
(dp2352
I00
g0
(g1
g2
Ntp2353
Rp2354
(dp2355
g6
S'contains(especially)'
p2356
sg8
I0
sg9
(dp2357
I01
g0
(g1
g2
Ntp2358
Rp2359
(dp2360
g6
Nsg8
I-1
sg9
Nsg35
NsbsNg0
(g1
g2
Ntp2361
Rp2362
(dp2363
g6
S'contains(included)'
p2364
sg8
I0
sg9
(dp2365
I01
g0
(g1
g2
Ntp2366
Rp2367
(dp2368
g6
Nsg8
I1
sg9
Nsg35
NsbsNg0
(g1
g2
Ntp2369
Rp2370
(dp2371
g6
S'contains(fast)'
p2372
sg8
I0
sg9
(dp2373
I01
g0
(g1
g2
Ntp2374
Rp2375
(dp2376
g6
Nsg8
I1
sg9
Nsg35
NsbsNg0
(g1
g2
Ntp2377
Rp2378
(dp2379
g6
S'contains(free)'
p2380
sg8
I0
sg9
(dp2381
I01
g0
(g1
g2
Ntp2382
Rp2383
(dp2384
g6
Nsg8
I-1
sg9
Nsg35
NsbsNg0
(g1
g2
Ntp2385
Rp2386
(dp2387
g6
Nsg8
I0
sg9
Nsg35
Nsbssg35
Nsbssg35
Nsbssg35
Nsbssg35
NsbsI01
g0
(g1
g2
Ntp2388
Rp2389
(dp2390
g6
Nsg8
I-1
sg9
Nsg35
Nsbssg35
Nsbssg35
NsbsI01
g0
(g1
g2
Ntp2391
Rp2392
(dp2393
g6
Nsg8
I-1
sg9
Nsg35
Nsbssg35
NsbsI01
g0
(g1
g2
Ntp2394
Rp2395
(dp2396
g6
Nsg8
I-1
sg9
Nsg35
Nsbssg35
NsbsI01
g0
(g1
g2
Ntp2397
Rp2398
(dp2399
g6
Nsg8
I-1
sg9
Nsg35
Nsbssg35
Nsbssg35
Nsbssg35
NsbsI01
g0
(g1
g2
Ntp2400
Rp2401
(dp2402
g6
Nsg8
I-1
sg9
Nsg35
Nsbssg35
NsbsI01
g0
(g1
g2
Ntp2403
Rp2404
(dp2405
g6
Nsg8
I-1
sg9
Nsg35
Nsbssg35
NsbsI01
g0
(g1
g2
Ntp2406
Rp2407
(dp2408
g6
Nsg8
I-1
sg9
Nsg35
Nsbssg35
NsbsI01
g0
(g1
g2
Ntp2409
Rp2410
(dp2411
g6
Nsg8
I-1
sg9
Nsg35
Nsbssg35
NsbsI01
g0
(g1
g2
Ntp2412
Rp2413
(dp2414
g6
Nsg8
I-1
sg9
Nsg35
Nsbssg35
Nsbssg35
NsbsI01
g0
(g1
g2
Ntp2415
Rp2416
(dp2417
g6
Nsg8
I1
sg9
Nsg35
Nsbssg35
Nsbssg35
Nsbssg35
NsbsI01
g0
(g1
g2
Ntp2418
Rp2419
(dp2420
g6
Nsg8
I-1
sg9
Nsg35
Nsbssg35
Nsbssg35
NsbsI01
g0
(g1
g2
Ntp2421
Rp2422
(dp2423
g6
Nsg8
I-1
sg9
Nsg35
Nsbssg35
Nsbssg35
Nsbssg35
Nsbssg35
Nsbssg35
Nsbssg35
Nsbssg35
Nsbssg35
Nsbssg35
Nsbssg35
Nsbssg35
NsbsI01
g0
(g1
g2
Ntp2424
Rp2425
(dp2426
g6
Nsg8
I-1
sg9
Nsg35
Nsbssg35
NsbsI01
g0
(g1
g2
Ntp2427
Rp2428
(dp2429
g6
Nsg8
I-1
sg9
Nsg35
Nsbssg35
NsbsI01
g0
(g1
g2
Ntp2430
Rp2431
(dp2432
g6
S'contains(else)'
p2433
sg8
I0
sg9
(dp2434
I01
g0
(g1
g2
Ntp2435
Rp2436
(dp2437
g6
Nsg8
I1
sg9
Nsg35
NsbsNg0
(g1
g2
Ntp2438
Rp2439
(dp2440
g6
Nsg8
I-1
sg9
Nsg35
Nsbssg35
Nsbssg35
NsbsI01
g0
(g1
g2
Ntp2441
Rp2442
(dp2443
g6
Nsg8
I-1
sg9
Nsg35
Nsbssg35
Nsbssg35
NsbsI01
g0
(g1
g2
Ntp2444
Rp2445
(dp2446
g6
Nsg8
I-1
sg9
Nsg35
Nsbssg35
Nsbssg35
Nsbssg35
Nsbssg35
Nsbssg35
Nsbssg35
NsbsI1
g0
(g1
g2
Ntp2447
Rp2448
(dp2449
g6
S'contains_bigram_pattern(little,getting)'
p2450
sg8
I0
sg9
(dp2451
I00
g0
(g1
g2
Ntp2452
Rp2453
(dp2454
g6
Vcontains(only)
p2455
sg8
I0
sg9
(dp2456
I00
g0
(g1
g2
Ntp2457
Rp2458
(dp2459
g6
Vcontains(manual)
p2460
sg8
I0
sg9
(dp2461
I00
g0
(g1
g2
Ntp2462
Rp2463
(dp2464
g6
S'contains(take)'
p2465
sg8
I0
sg9
(dp2466
I01
g0
(g1
g2
Ntp2467
Rp2468
(dp2469
g6
Vcontains(many)
p2470
sg8
I1
sg9
(dp2471
I00
g0
(g1
g2
Ntp2472
Rp2473
(dp2474
g6
Nsg8
I1
sg9
Nsg35
NsbsI01
g0
(g1
g2
Ntp2475
Rp2476
(dp2477
g6
Nsg8
I0
sg9
Nsg35
Nsbssg35
NsbsNg0
(g1
g2
Ntp2478
Rp2479
(dp2480
g6
S"contains_bigram_pattern(n't,play)"
p2481
sg8
I0
sg9
(dp2482
I00
g0
(g1
g2
Ntp2483
Rp2484
(dp2485
g6
S'contains(easily)'
p2486
sg8
I0
sg9
(dp2487
I01
g0
(g1
g2
Ntp2488
Rp2489
(dp2490
g6
Nsg8
I-1
sg9
Nsg35
NsbsNg0
(g1
g2
Ntp2491
Rp2492
(dp2493
g6
S'contains(much)'
p2494
sg8
I0
sg9
(dp2495
I01
g0
(g1
g2
Ntp2496
Rp2497
(dp2498
g6
Nsg8
I1
sg9
Nsg35
NsbsNg0
(g1
g2
Ntp2499
Rp2500
(dp2501
g6
S'contains(takes)'
p2502
sg8
I0
sg9
(dp2503
I01
g0
(g1
g2
Ntp2504
Rp2505
(dp2506
g6
Nsg8
I-1
sg9
Nsg35
NsbsNg0
(g1
g2
Ntp2507
Rp2508
(dp2509
g6
S'contains(seems)'
p2510
sg8
I0
sg9
(dp2511
I01
g0
(g1
g2
Ntp2512
Rp2513
(dp2514
g6
Nsg8
I1
sg9
Nsg35
NsbsNg0
(g1
g2
Ntp2515
Rp2516
(dp2517
g6
S'contains(either)'
p2518
sg8
I0
sg9
(dp2519
I01
g0
(g1
g2
Ntp2520
Rp2521
(dp2522
g6
S'contains(needs)'
p2523
sg8
I-1
sg9
(dp2524
I01
g0
(g1
g2
Ntp2525
Rp2526
(dp2527
g6
Nsg8
I-1
sg9
Nsg35
NsbsNg0
(g1
g2
Ntp2528
Rp2529
(dp2530
g6
Nsg8
I1
sg9
Nsg35
Nsbssg35
NsbsNg0
(g1
g2
Ntp2531
Rp2532
(dp2533
g6
S"contains_bigram_pattern(n't,have)"
p2534
sg8
I0
sg9
(dp2535
I00
g0
(g1
g2
Ntp2536
Rp2537
(dp2538
g6
S"contains_bigram_pattern(n't,work)"
p2539
sg8
I0
sg9
(dp2540
I00
g0
(g1
g2
Ntp2541
Rp2542
(dp2543
g6
S'contains_bigram_pattern(probably,get)'
p2544
sg8
I0
sg9
(dp2545
I00
g0
(g1
g2
Ntp2546
Rp2547
(dp2548
g6
S'contains(clear)'
p2549
sg8
I0
sg9
(dp2550
I01
g0
(g1
g2
Ntp2551
Rp2552
(dp2553
g6
Nsg8
I1
sg9
Nsg35
NsbsNg0
(g1
g2
Ntp2554
Rp2555
(dp2556
g6
S'contains(love)'
p2557
sg8
I0
sg9
(dp2558
I01
g0
(g1
g2
Ntp2559
Rp2560
(dp2561
g6
Nsg8
I1
sg9
Nsg35
NsbsNg0
(g1
g2
Ntp2562
Rp2563
(dp2564
g6
Vcontains(cool)
p2565
sg8
I0
sg9
(dp2566
I00
g0
(g1
g2
Ntp2567
Rp2568
(dp2569
g6
S'contains(enough)'
p2570
sg8
I0
sg9
(dp2571
I01
g0
(g1
g2
Ntp2572
Rp2573
(dp2574
g6
Nsg8
I1
sg9
Nsg35
NsbsNg0
(g1
g2
Ntp2575
Rp2576
(dp2577
g6
S'contains_bigram_pattern(not,help)'
p2578
sg8
I0
sg9
(dp2579
I00
g0
(g1
g2
Ntp2580
Rp2581
(dp2582
g6
S"contains_bigram_pattern(n't,get)"
p2583
sg8
I0
sg9
(dp2584
I00
g0
(g1
g2
Ntp2585
Rp2586
(dp2587
g6
S'contains(compared)'
p2588
sg8
I0
sg9
(dp2589
I01
g0
(g1
g2
Ntp2590
Rp2591
(dp2592
g6
Nsg8
I1
sg9
Nsg35
NsbsNg0
(g1
g2
Ntp2593
Rp2594
(dp2595
g6
S'contains(looks)'
p2596
sg8
I0
sg9
(dp2597
I01
g0
(g1
g2
Ntp2598
Rp2599
(dp2600
g6
Nsg8
I-1
sg9
Nsg35
NsbsNg0
(g1
g2
Ntp2601
Rp2602
(dp2603
g6
S'contains(regular)'
p2604
sg8
I0
sg9
(dp2605
I01
g0
(g1
g2
Ntp2606
Rp2607
(dp2608
g6
Nsg8
I-1
sg9
Nsg35
NsbsNg0
(g1
g2
Ntp2609
Rp2610
(dp2611
g6
S'contains_bigram_pattern(very,useful)'
p2612
sg8
I0
sg9
(dp2613
I00
g0
(g1
g2
Ntp2614
Rp2615
(dp2616
g6
S"contains_bigram_pattern(n't,include)"
p2617
sg8
I0
sg9
(dp2618
I00
g0
(g1
g2
Ntp2619
Rp2620
(dp2621
g6
S'contains(quite)'
p2622
sg8
I0
sg9
(dp2623
I01
g0
(g1
g2
Ntp2624
Rp2625
(dp2626
g6
Nsg8
I1
sg9
Nsg35
NsbsNg0
(g1
g2
Ntp2627
Rp2628
(dp2629
g6
S'contains(different)'
p2630
sg8
I0
sg9
(dp2631
I01
g0
(g1
g2
Ntp2632
Rp2633
(dp2634
g6
S'contains(play)'
p2635
sg8
I0
sg9
(dp2636
I01
g0
(g1
g2
Ntp2637
Rp2638
(dp2639
g6
Nsg8
I0
sg9
Nsg35
NsbsNg0
(g1
g2
Ntp2640
Rp2641
(dp2642
g6
Nsg8
I1
sg9
Nsg35
Nsbssg35
NsbsNg0
(g1
g2
Ntp2643
Rp2644
(dp2645
g6
S'contains(included)'
p2646
sg8
I0
sg9
(dp2647
I01
g0
(g1
g2
Ntp2648
Rp2649
(dp2650
g6
Nsg8
I1
sg9
Nsg35
NsbsNg0
(g1
g2
Ntp2651
Rp2652
(dp2653
g6
S'contains(fast)'
p2654
sg8
I0
sg9
(dp2655
I01
g0
(g1
g2
Ntp2656
Rp2657
(dp2658
g6
Nsg8
I1
sg9
Nsg35
NsbsNg0
(g1
g2
Ntp2659
Rp2660
(dp2661
g6
Nsg8
I0
sg9
Nsg35
Nsbssg35
Nsbssg35
Nsbssg35
Nsbssg35
NsbsI01
g0
(g1
g2
Ntp2662
Rp2663
(dp2664
g6
Nsg8
I-1
sg9
Nsg35
Nsbssg35
NsbsI01
g0
(g1
g2
Ntp2665
Rp2666
(dp2667
g6
Nsg8
I1
sg9
Nsg35
Nsbssg35
Nsbssg35
Nsbssg35
Nsbssg35
NsbsI01
g0
(g1
g2
Ntp2668
Rp2669
(dp2670
g6
Nsg8
I-1
sg9
Nsg35
Nsbssg35
NsbsI01
g0
(g1
g2
Ntp2671
Rp2672
(dp2673
g6
Nsg8
I-1
sg9
Nsg35
Nsbssg35
Nsbssg35
NsbsI01
g0
(g1
g2
Ntp2674
Rp2675
(dp2676
g6
Nsg8
I-1
sg9
Nsg35
Nsbssg35
Nsbssg35
Nsbssg35
NsbsI01
g0
(g1
g2
Ntp2677
Rp2678
(dp2679
g6
Nsg8
I-1
sg9
Nsg35
Nsbssg35
NsbsI01
g0
(g1
g2
Ntp2680
Rp2681
(dp2682
g6
Nsg8
I-1
sg9
Nsg35
Nsbssg35
NsbsI01
g0
(g1
g2
Ntp2683
Rp2684
(dp2685
g6
Vcontains(music)
p2686
sg8
I1
sg9
(dp2687
I00
g0
(g1
g2
Ntp2688
Rp2689
(dp2690
g6
Nsg8
I-1
sg9
Nsg35
NsbsI01
g0
(g1
g2
Ntp2691
Rp2692
(dp2693
g6
Nsg8
I1
sg9
Nsg35
Nsbssg35
Nsbssg35
Nsbssg35
Nsbssg35
Nsbssg35
Nsbssg35
Nsbssg35
NsbsI01
g0
(g1
g2
Ntp2694
Rp2695
(dp2696
g6
Nsg8
I-1
sg9
Nsg35
Nsbssg35
Nsbssg35
NsbsI01
g0
(g1
g2
Ntp2697
Rp2698
(dp2699
g6
S'contains(almost)'
p2700
sg8
I1
sg9
(dp2701
I01
g0
(g1
g2
Ntp2702
Rp2703
(dp2704
g6
Nsg8
I1
sg9
Nsg35
NsbsNg0
(g1
g2
Ntp2705
Rp2706
(dp2707
g6
Nsg8
I-1
sg9
Nsg35
Nsbssg35
Nsbssg35
NsbsI01
g0
(g1
g2
Ntp2708
Rp2709
(dp2710
g6
Vcontains(little)
p2711
sg8
I1
sg9
(dp2712
I00
g0
(g1
g2
Ntp2713
Rp2714
(dp2715
g6
Nsg8
I-1
sg9
Nsg35
NsbsI01
g0
(g1
g2
Ntp2716
Rp2717
(dp2718
g6
Nsg8
I1
sg9
Nsg35
Nsbssg35
Nsbssg35
NsbsI01
g0
(g1
g2
Ntp2719
Rp2720
(dp2721
g6
Nsg8
I-1
sg9
Nsg35
Nsbssg35
NsbsI2
g0
(g1
g2
Ntp2722
Rp2723
(dp2724
g6
S'contains_bigram_pattern(low,light)'
p2725
sg8
I0
sg9
(dp2726
I00
g0
(g1
g2
Ntp2727
Rp2728
(dp2729
g6
Vcontains(little)
p2730
sg8
I1
sg9
(dp2731
I00
g0
(g1
g2
Ntp2732
Rp2733
(dp2734
g6
S"contains_bigram_pattern(n't,have)"
p2735
sg8
I1
sg9
(dp2736
I00
g0
(g1
g2
Ntp2737
Rp2738
(dp2739
g6
S'contains_bigram_pattern(not,give)'
p2740
sg8
I1
sg9
(dp2741
I00
g0
(g1
g2
Ntp2742
Rp2743
(dp2744
g6
S'contains_bigram_pattern(good,reviews)'
p2745
sg8
I1
sg9
(dp2746
I00
g0
(g1
g2
Ntp2747
Rp2748
(dp2749
g6
S'contains_bigram_pattern(too,small)'
p2750
sg8
I1
sg9
(dp2751
I00
g0
(g1
g2
Ntp2752
Rp2753
(dp2754
g6
S'contains_bigram_pattern(other,reviewers)'
p2755
sg8
I1
sg9
(dp2756
I00
g0
(g1
g2
Ntp2757
Rp2758
(dp2759
g6
Nsg8
I1
sg9
Nsg35
NsbsI01
g0
(g1
g2
Ntp2760
Rp2761
(dp2762
g6
Nsg8
I0
sg9
Nsg35
Nsbssg35
NsbsI01
g0
(g1
g2
Ntp2763
Rp2764
(dp2765
g6
Vcontains(first)
p2766
sg8
I-1
sg9
(dp2767
I00
g0
(g1
g2
Ntp2768
Rp2769
(dp2770
g6
Nsg8
I-1
sg9
Nsg35
NsbsI01
g0
(g1
g2
Ntp2771
Rp2772
(dp2773
g6
Nsg8
I0
sg9
Nsg35
Nsbssg35
Nsbssg35
NsbsI01
g0
(g1
g2
Ntp2774
Rp2775
(dp2776
g6
Nsg8
I0
sg9
Nsg35
Nsbssg35
NsbsI01
g0
(g1
g2
Ntp2777
Rp2778
(dp2779
g6
Nsg8
I-1
sg9
Nsg35
Nsbssg35
NsbsI01
g0
(g1
g2
Ntp2780
Rp2781
(dp2782
g6
Nsg8
I0
sg9
Nsg35
Nsbssg35
NsbsI01
g0
(g1
g2
Ntp2783
Rp2784
(dp2785
g6
S'contains(comfortable)'
p2786
sg8
I-1
sg9
(dp2787
I01
g0
(g1
g2
Ntp2788
Rp2789
(dp2790
g6
Nsg8
I1
sg9
Nsg35
NsbsNg0
(g1
g2
Ntp2791
Rp2792
(dp2793
g6
Nsg8
I-1
sg9
Nsg35
Nsbssg35
Nsbssg35
NsbsI01
g0
(g1
g2
Ntp2794
Rp2795
(dp2796
g6
Nsg8
I0
sg9
Nsg35
Nsbssg35
NsbsI3
g0
(g1
g2
Ntp2797
Rp2798
(dp2799
g6
Nsg8
I1
sg9
Nsg35
Nsbssg35
Nsbsg321
g0
(g1
g2
Ntp2800
Rp2801
(dp2802
g6
S"contains_bigram_pattern(n't,have)"
p2803
sg8
I-1
sg9
(dp2804
I00
g0
(g1
g2
Ntp2805
Rp2806
(dp2807
g6
g499
sg8
I-1
sg9
(dp2808
I0
g0
(g1
g2
Ntp2809
Rp2810
(dp2811
g6
S'contains(would)'
p2812
sg8
I0
sg9
(dp2813
I01
g0
(g1
g2
Ntp2814
Rp2815
(dp2816
g6
S'contains(either)'
p2817
sg8
I0
sg9
(dp2818
I01
g0
(g1
g2
Ntp2819
Rp2820
(dp2821
g6
Nsg8
I-1
sg9
Nsg35
NsbsNg0
(g1
g2
Ntp2822
Rp2823
(dp2824
g6
S'contains(took)'
p2825
sg8
I0
sg9
(dp2826
I01
g0
(g1
g2
Ntp2827
Rp2828
(dp2829
g6
Nsg8
I-1
sg9
Nsg35
NsbsNg0
(g1
g2
Ntp2830
Rp2831
(dp2832
g6
S'contains_bigram_pattern(much,time)'
p2833
sg8
I0
sg9
(dp2834
I00
g0
(g1
g2
Ntp2835
Rp2836
(dp2837
g6
S'contains(unfortunately)'
p2838
sg8
I0
sg9
(dp2839
I01
g0
(g1
g2
Ntp2840
Rp2841
(dp2842
g6
Nsg8
I-1
sg9
Nsg35
NsbsNg0
(g1
g2
Ntp2843
Rp2844
(dp2845
g6
S'contains_bigram_pattern(month,later)'
p2846
sg8
I0
sg9
(dp2847
I00
g0
(g1
g2
Ntp2848
Rp2849
(dp2850
g6
Nsg8
I0
sg9
Nsg35
NsbsI01
g0
(g1
g2
Ntp2851
Rp2852
(dp2853
g6
Nsg8
I-1
sg9
Nsg35
Nsbssg35
Nsbssg35
NsbsI01
g0
(g1
g2
Ntp2854
Rp2855
(dp2856
g6
Nsg8
I-1
sg9
Nsg35
Nsbssg35
Nsbssg35
Nsbssg35
NsbsNg0
(g1
g2
Ntp2857
Rp2858
(dp2859
g6
S"contains_bigram_pattern(n't,get)"
p2860
sg8
I0
sg9
(dp2861
I00
g0
(g1
g2
Ntp2862
Rp2863
(dp2864
g6
S'contains_bigram_pattern(not,compatible)'
p2865
sg8
I0
sg9
(dp2866
I00
g0
(g1
g2
Ntp2867
Rp2868
(dp2869
g6
S'contains(looking)'
p2870
sg8
I0
sg9
(dp2871
I01
g0
(g1
g2
Ntp2872
Rp2873
(dp2874
g6
Nsg8
I1
sg9
Nsg35
NsbsNg0
(g1
g2
Ntp2875
Rp2876
(dp2877
g6
S'contains(think)'
p2878
sg8
I0
sg9
(dp2879
I01
g0
(g1
g2
Ntp2880
Rp2881
(dp2882
g6
S'contains(however)'
p2883
sg8
I0
sg9
(dp2884
I01
g0
(g1
g2
Ntp2885
Rp2886
(dp2887
g6
Nsg8
I-1
sg9
Nsg35
NsbsNg0
(g1
g2
Ntp2888
Rp2889
(dp2890
g6
Nsg8
I0
sg9
Nsg35
Nsbssg35
NsbsNg0
(g1
g2
Ntp2891
Rp2892
(dp2893
g6
S'contains(however)'
p2894
sg8
I0
sg9
(dp2895
I01
g0
(g1
g2
Ntp2896
Rp2897
(dp2898
g6
S'contains_bigram_pattern(not,difficult)'
p2899
sg8
I0
sg9
(dp2900
I00
g0
(g1
g2
Ntp2901
Rp2902
(dp2903
g6
Nsg8
I0
sg9
Nsg35
NsbsI01
g0
(g1
g2
Ntp2904
Rp2905
(dp2906
g6
Nsg8
I1
sg9
Nsg35
Nsbssg35
NsbsNg0
(g1
g2
Ntp2907
Rp2908
(dp2909
g6
S'contains_bigram_pattern(very,bad)'
p2910
sg8
I0
sg9
(dp2911
I00
g0
(g1
g2
Ntp2912
Rp2913
(dp2914
g6
S'contains(running)'
p2915
sg8
I0
sg9
(dp2916
I01
g0
(g1
g2
Ntp2917
Rp2918
(dp2919
g6
Nsg8
I1
sg9
Nsg35
NsbsNg0
(g1
g2
Ntp2920
Rp2921
(dp2922
g6
S'contains(quite)'
p2923
sg8
I0
sg9
(dp2924
I01
g0
(g1
g2
Ntp2925
Rp2926
(dp2927
g6
Nsg8
I1
sg9
Nsg35
NsbsNg0
(g1
g2
Ntp2928
Rp2929
(dp2930
g6
S'contains_bigram_pattern(only,thing)'
p2931
sg8
I0
sg9
(dp2932
I00
g0
(g1
g2
Ntp2933
Rp2934
(dp2935
g6
S'contains(mine)'
p2936
sg8
I0
sg9
(dp2937
I01
g0
(g1
g2
Ntp2938
Rp2939
(dp2940
g6
Nsg8
I0
sg9
Nsg35
NsbsNg0
(g1
g2
Ntp2941
Rp2942
(dp2943
g6
S'contains(highly)'
p2944
sg8
I0
sg9
(dp2945
I01
g0
(g1
g2
Ntp2946
Rp2947
(dp2948
g6
Nsg8
I0
sg9
Nsg35
NsbsNg0
(g1
g2
Ntp2949
Rp2950
(dp2951
g6
Vcontains(same)
p2952
sg8
I0
sg9
(dp2953
I00
g0
(g1
g2
Ntp2954
Rp2955
(dp2956
g6
S'emoticon(:))'
p2957
sg8
I0
sg9
(dp2958
I00
g0
(g1
g2
Ntp2959
Rp2960
(dp2961
g6
S"contains_bigram_pattern(n't,want)"
p2962
sg8
I0
sg9
(dp2963
I00
g0
(g1
g2
Ntp2964
Rp2965
(dp2966
g6
S'contains_bigram_pattern(several,different)'
p2967
sg8
I0
sg9
(dp2968
I00
g0
(g1
g2
Ntp2969
Rp2970
(dp2971
g6
S"contains_bigram_pattern(n't,let)"
p2972
sg8
I0
sg9
(dp2973
I00
g0
(g1
g2
Ntp2974
Rp2975
(dp2976
g6
S"contains_bigram_pattern(n't,been)"
p2977
sg8
I0
sg9
(dp2978
I00
g0
(g1
g2
Ntp2979
Rp2980
(dp2981
g6
S'contains(quickly)'
p2982
sg8
I0
sg9
(dp2983
I01
g0
(g1
g2
Ntp2984
Rp2985
(dp2986
g6
Nsg8
I1
sg9
Nsg35
NsbsNg0
(g1
g2
Ntp2987
Rp2988
(dp2989
g6
S'contains_bigram_pattern(not,use)'
p2990
sg8
I0
sg9
(dp2991
I00
g0
(g1
g2
Ntp2992
Rp2993
(dp2994
g6
S"contains_bigram_pattern(n't,like)"
p2995
sg8
I0
sg9
(dp2996
I00
g0
(g1
g2
Ntp2997
Rp2998
(dp2999
g6
S'contains(take)'
p3000
sg8
I0
sg9
(dp3001
I01
g0
(g1
g2
Ntp3002
Rp3003
(dp3004
g6
Nsg8
I1
sg9
Nsg35
NsbsNg0
(g1
g2
Ntp3005
Rp3006
(dp3007
g6
S'contains_bigram_pattern(too,much)'
p3008
sg8
I0
sg9
(dp3009
I00
g0
(g1
g2
Ntp3010
Rp3011
(dp3012
g6
S"contains_bigram_pattern(n't,cover)"
p3013
sg8
I-1
sg9
(dp3014
I00
g0
(g1
g2
Ntp3015
Rp3016
(dp3017
g6
S'contains(perfect)'
p3018
sg8
I-1
sg9
(dp3019
I01
g0
(g1
g2
Ntp3020
Rp3021
(dp3022
g6
Nsg8
I1
sg9
Nsg35
NsbsNg0
(g1
g2
Ntp3023
Rp3024
(dp3025
g6
S'contains(sometimes)'
p3026
sg8
I-1
sg9
(dp3027
I01
g0
(g1
g2
Ntp3028
Rp3029
(dp3030
g6
Nsg8
I0
sg9
Nsg35
NsbsNg0
(g1
g2
Ntp3031
Rp3032
(dp3033
g6
S'contains(else)'
p3034
sg8
I-1
sg9
(dp3035
I01
g0
(g1
g2
Ntp3036
Rp3037
(dp3038
g6
Nsg8
I0
sg9
Nsg35
NsbsNg0
(g1
g2
Ntp3039
Rp3040
(dp3041
g6
Nsg8
I-1
sg9
Nsg35
Nsbssg35
Nsbssg35
Nsbssg35
NsbsI01
g0
(g1
g2
Ntp3042
Rp3043
(dp3044
g6
Nsg8
I0
sg9
Nsg35
Nsbssg35
NsbsI01
g0
(g1
g2
Ntp3045
Rp3046
(dp3047
g6
S'contains(still)'
p3048
sg8
I0
sg9
(dp3049
I01
g0
(g1
g2
Ntp3050
Rp3051
(dp3052
g6
Nsg8
I-1
sg9
Nsg35
NsbsNg0
(g1
g2
Ntp3053
Rp3054
(dp3055
g6
Nsg8
I1
sg9
Nsg35
Nsbssg35
Nsbssg35
Nsbssg35
NsbsI01
g0
(g1
g2
Ntp3056
Rp3057
(dp3058
g6
S'contains(away)'
p3059
sg8
I0
sg9
(dp3060
I01
g0
(g1
g2
Ntp3061
Rp3062
(dp3063
g6
Nsg8
I-1
sg9
Nsg35
NsbsNg0
(g1
g2
Ntp3064
Rp3065
(dp3066
g6
Nsg8
I0
sg9
Nsg35
Nsbssg35
Nsbssg35
NsbsI01
g0
(g1
g2
Ntp3067
Rp3068
(dp3069
g6
Nsg8
I0
sg9
Nsg35
Nsbssg35
Nsbssg35
NsbsI01
g0
(g1
g2
Ntp3070
Rp3071
(dp3072
g6
Vcontains(only)
p3073
sg8
I-1
sg9
(dp3074
I00
g0
(g1
g2
Ntp3075
Rp3076
(dp3077
g6
Nsg8
I1
sg9
Nsg35
NsbsI01
g0
(g1
g2
Ntp3078
Rp3079
(dp3080
g6
Nsg8
I-1
sg9
Nsg35
Nsbssg35
Nsbssg35
NsbsI01
g0
(g1
g2
Ntp3081
Rp3082
(dp3083
g6
Nsg8
I0
sg9
Nsg35
Nsbssg35
NsbsI01
g0
(g1
g2
Ntp3084
Rp3085
(dp3086
g6
Nsg8
I0
sg9
Nsg35
Nsbssg35
NsbsI01
g0
(g1
g2
Ntp3087
Rp3088
(dp3089
g6
Nsg8
I0
sg9
Nsg35
Nsbssg35
NsbsI01
g0
(g1
g2
Ntp3090
Rp3091
(dp3092
g6
Nsg8
I0
sg9
Nsg35
Nsbssg35
NsbsI01
g0
(g1
g2
Ntp3093
Rp3094
(dp3095
g6
Nsg8
I1
sg9
Nsg35
Nsbssg35
Nsbssg35
Nsbssg35
NsbsI01
g0
(g1
g2
Ntp3096
Rp3097
(dp3098
g6
g1418
sg8
I-1
sg9
(dp3099
g11
g0
(g1
g2
Ntp3100
Rp3101
(dp3102
g6
Nsg8
I-1
sg9
Nsg35
Nsbsg321
g0
(g1
g2
Ntp3103
Rp3104
(dp3105
g6
Nsg8
I0
sg9
Nsg35
Nsbssg35
Nsbssg35
Nsbssg35
Nsbssg35
NsbsI01
g0
(g1
g2
Ntp3106
Rp3107
(dp3108
g6
Nsg8
I0
sg9
Nsg35
Nsbssg35
Nsbssg35
Nsbssg35
Nsbssg35
NsbsI01
g0
(g1
g2
Ntp3109
Rp3110
(dp3111
g6
Nsg8
I0
sg9
Nsg35
Nsbssg35
NsbsI01
g0
(g1
g2
Ntp3112
Rp3113
(dp3114
g6
S'contains(sure)'
p3115
sg8
I0
sg9
(dp3116
I01
g0
(g1
g2
Ntp3117
Rp3118
(dp3119
g6
Nsg8
I-1
sg9
Nsg35
NsbsNg0
(g1
g2
Ntp3120
Rp3121
(dp3122
g6
Nsg8
I0
sg9
Nsg35
Nsbssg35
Nsbssg35
Nsbssg35
NsbsI1
g0
(g1
g2
Ntp3123
Rp3124
(dp3125
g6
S'contains(seems)'
p3126
sg8
I-1
sg9
(dp3127
I01
g0
(g1
g2
Ntp3128
Rp3129
(dp3130
g6
Nsg8
I0
sg9
Nsg35
NsbsNg0
(g1
g2
Ntp3131
Rp3132
(dp3133
g6
Vcontains(music)
p3134
sg8
I-1
sg9
(dp3135
I00
g0
(g1
g2
Ntp3136
Rp3137
(dp3138
g6
Vcontains(few)
p3139
sg8
I-1
sg9
(dp3140
I00
g0
(g1
g2
Ntp3141
Rp3142
(dp3143
g6
S'contains(might)'
p3144
sg8
I-1
sg9
(dp3145
I01
g0
(g1
g2
Ntp3146
Rp3147
(dp3148
g6
Nsg8
I0
sg9
Nsg35
NsbsNg0
(g1
g2
Ntp3149
Rp3150
(dp3151
g6
S'contains(either)'
p3152
sg8
I-1
sg9
(dp3153
I01
g0
(g1
g2
Ntp3154
Rp3155
(dp3156
g6
Nsg8
I0
sg9
Nsg35
NsbsNg0
(g1
g2
Ntp3157
Rp3158
(dp3159
g6
S'contains(mine)'
p3160
sg8
I-1
sg9
(dp3161
I01
g0
(g1
g2
Ntp3162
Rp3163
(dp3164
g6
Nsg8
I0
sg9
Nsg35
NsbsNg0
(g1
g2
Ntp3165
Rp3166
(dp3167
g6
S'contains_bigram_pattern(not,work)'
p3168
sg8
I-1
sg9
(dp3169
I00
g0
(g1
g2
Ntp3170
Rp3171
(dp3172
g6
S"contains_bigram_pattern(n't,stop)"
p3173
sg8
I-1
sg9
(dp3174
I00
g0
(g1
g2
Ntp3175
Rp3176
(dp3177
g6
S'contains_bigram_pattern(very,small)'
p3178
sg8
I-1
sg9
(dp3179
I00
g0
(g1
g2
Ntp3180
Rp3181
(dp3182
g6
S'contains(ever)'
p3183
sg8
I-1
sg9
(dp3184
I01
g0
(g1
g2
Ntp3185
Rp3186
(dp3187
g6
Nsg8
I0
sg9
Nsg35
NsbsNg0
(g1
g2
Ntp3188
Rp3189
(dp3190
g6
S'contains(able)'
p3191
sg8
I-1
sg9
(dp3192
I01
g0
(g1
g2
Ntp3193
Rp3194
(dp3195
g6
Nsg8
I0
sg9
Nsg35
NsbsNg0
(g1
g2
Ntp3196
Rp3197
(dp3198
g6
S'contains(working)'
p3199
sg8
I-1
sg9
(dp3200
I01
g0
(g1
g2
Ntp3201
Rp3202
(dp3203
g6
Nsg8
I1
sg9
Nsg35
NsbsNg0
(g1
g2
Ntp3204
Rp3205
(dp3206
g6
S'contains(already)'
p3207
sg8
I-1
sg9
(dp3208
I01
g0
(g1
g2
Ntp3209
Rp3210
(dp3211
g6
Nsg8
I0
sg9
Nsg35
NsbsNg0
(g1
g2
Ntp3212
Rp3213
(dp3214
g6
S'contains_bigram_pattern(normal,use)'
p3215
sg8
I-1
sg9
(dp3216
I00
g0
(g1
g2
Ntp3217
Rp3218
(dp3219
g6
S'contains(another)'
p3220
sg8
I-1
sg9
(dp3221
I01
g0
(g1
g2
Ntp3222
Rp3223
(dp3224
g6
Nsg8
I1
sg9
Nsg35
NsbsNg0
(g1
g2
Ntp3225
Rp3226
(dp3227
g6
S'contains(based)'
p3228
sg8
I-1
sg9
(dp3229
I01
g0
(g1
g2
Ntp3230
Rp3231
(dp3232
g6
Nsg8
I0
sg9
Nsg35
NsbsNg0
(g1
g2
Ntp3233
Rp3234
(dp3235
g6
S'contains(probably)'
p3236
sg8
I-1
sg9
(dp3237
I01
g0
(g1
g2
Ntp3238
Rp3239
(dp3240
g6
Nsg8
I0
sg9
Nsg35
NsbsNg0
(g1
g2
Ntp3241
Rp3242
(dp3243
g6
S'contains(trying)'
p3244
sg8
I-1
sg9
(dp3245
I01
g0
(g1
g2
Ntp3246
Rp3247
(dp3248
g6
Nsg8
I0
sg9
Nsg35
NsbsNg0
(g1
g2
Ntp3249
Rp3250
(dp3251
g6
Vcontains(slow)
p3252
sg8
I-1
sg9
(dp3253
I00
g0
(g1
g2
Ntp3254
Rp3255
(dp3256
g6
S'contains(look)'
p3257
sg8
I-1
sg9
(dp3258
I01
g0
(g1
g2
Ntp3259
Rp3260
(dp3261
g6
Nsg8
I0
sg9
Nsg35
NsbsNg0
(g1
g2
Ntp3262
Rp3263
(dp3264
g6
S'contains(though)'
p3265
sg8
I-1
sg9
(dp3266
I01
g0
(g1
g2
Ntp3267
Rp3268
(dp3269
g6
S'contains(know)'
p3270
sg8
I1
sg9
(dp3271
I01
g0
(g1
g2
Ntp3272
Rp3273
(dp3274
g6
Nsg8
I1
sg9
Nsg35
NsbsNg0
(g1
g2
Ntp3275
Rp3276
(dp3277
g6
Nsg8
I0
sg9
Nsg35
Nsbssg35
NsbsNg0
(g1
g2
Ntp3278
Rp3279
(dp3280
g6
Nsg8
I-1
sg9
Nsg35
Nsbssg35
Nsbssg35
NsbsI01
g0
(g1
g2
Ntp3281
Rp3282
(dp3283
g6
Nsg8
I0
sg9
Nsg35
Nsbssg35
Nsbssg35
Nsbssg35
Nsbssg35
Nsbssg35
NsbsI01
g0
(g1
g2
Ntp3284
Rp3285
(dp3286
g6
Nsg8
I1
sg9
Nsg35
Nsbssg35
Nsbssg35
Nsbssg35
Nsbssg35
Nsbssg35
NsbsI01
g0
(g1
g2
Ntp3287
Rp3288
(dp3289
g6
Nsg8
I0
sg9
Nsg35
Nsbssg35
NsbsI01
g0
(g1
g2
Ntp3290
Rp3291
(dp3292
g6
Nsg8
I0
sg9
Nsg35
Nsbssg35
NsbsI01
g0
(g1
g2
Ntp3293
Rp3294
(dp3295
g6
S'contains(standard)'
p3296
sg8
I0
sg9
(dp3297
I01
g0
(g1
g2
Ntp3298
Rp3299
(dp3300
g6
Nsg8
I-1
sg9
Nsg35
NsbsNg0
(g1
g2
Ntp3301
Rp3302
(dp3303
g6
Nsg8
I0
sg9
Nsg35
Nsbssg35
Nsbssg35
Nsbssg35
Nsbssg35
Nsbssg35
NsbsI01
g0
(g1
g2
Ntp3304
Rp3305
(dp3306
g6
g172
sg8
I-1
sg9
(dp3307
I0
g0
(g1
g2
Ntp3308
Rp3309
(dp3310
g6
Nsg8
I0
sg9
Nsg35
NsbsI1
g0
(g1
g2
Ntp3311
Rp3312
(dp3313
g6
Nsg8
I-1
sg9
Nsg35
NsbsI2
g0
(g1
g2
Ntp3314
Rp3315
(dp3316
g6
Nsg8
I0
sg9
Nsg35
Nsbssg35
Nsbssg35
NsbsI01
g0
(g1
g2
Ntp3317
Rp3318
(dp3319
g6
S"contains_bigram_pattern(n't,been)"
p3320
sg8
I0
sg9
(dp3321
I00
g0
(g1
g2
Ntp3322
Rp3323
(dp3324
g6
Nsg8
I0
sg9
Nsg35
NsbsI01
g0
(g1
g2
Ntp3325
Rp3326
(dp3327
g6
Nsg8
I1
sg9
Nsg35
Nsbssg35
Nsbssg35
Nsbssg35
NsbsI2
g0
(g1
g2
Ntp3328
Rp3329
(dp3330
g6
S'contains(least)'
p3331
sg8
I0
sg9
(dp3332
I01
g0
(g1
g2
Ntp3333
Rp3334
(dp3335
g6
Nsg8
I-1
sg9
Nsg35
NsbsNg0
(g1
g2
Ntp3336
Rp3337
(dp3338
g6
Vcontains(creative)
p3339
sg8
I0
sg9
(dp3340
I00
g0
(g1
g2
Ntp3341
Rp3342
(dp3343
g6
S'contains_bigram_pattern(other,reviews)'
p3344
sg8
I0
sg9
(dp3345
I00
g0
(g1
g2
Ntp3346
Rp3347
(dp3348
g6
S'contains_bigram_pattern(other,words)'
p3349
sg8
I0
sg9
(dp3350
I00
g0
(g1
g2
Ntp3351
Rp3352
(dp3353
g6
S'contains(working)'
p3354
sg8
I0
sg9
(dp3355
I01
g0
(g1
g2
Ntp3356
Rp3357
(dp3358
g6
Nsg8
I-1
sg9
Nsg35
NsbsNg0
(g1
g2
Ntp3359
Rp3360
(dp3361
g6
S"contains_bigram_pattern(n't,get)"
p3362
sg8
I0
sg9
(dp3363
I00
g0
(g1
g2
Ntp3364
Rp3365
(dp3366
g6
S'contains_bigram_pattern(few,times)'
p3367
sg8
I0
sg9
(dp3368
I00
g0
(g1
g2
Ntp3369
Rp3370
(dp3371
g6
Vcontains(nice)
p3372
sg8
I0
sg9
(dp3373
I00
g0
(g1
g2
Ntp3374
Rp3375
(dp3376
g6
Nsg8
I0
sg9
Nsg35
NsbsI01
g0
(g1
g2
Ntp3377
Rp3378
(dp3379
g6
Nsg8
I-1
sg9
Nsg35
Nsbssg35
NsbsI01
g0
(g1
g2
Ntp3380
Rp3381
(dp3382
g6
Nsg8
I-1
sg9
Nsg35
Nsbssg35
NsbsI01
g0
(g1
g2
Ntp3383
Rp3384
(dp3385
g6
Nsg8
I-1
sg9
Nsg35
Nsbssg35
Nsbssg35
NsbsI01
g0
(g1
g2
Ntp3386
Rp3387
(dp3388
g6
Nsg8
I-1
sg9
Nsg35
Nsbssg35
NsbsI01
g0
(g1
g2
Ntp3389
Rp3390
(dp3391
g6
Nsg8
I1
sg9
Nsg35
Nsbssg35
NsbsI01
g0
(g1
g2
Ntp3392
Rp3393
(dp3394
g6
S'contains(however)'
p3395
sg8
I0
sg9
(dp3396
I01
g0
(g1
g2
Ntp3397
Rp3398
(dp3399
g6
Nsg8
I0
sg9
Nsg35
NsbsNg0
(g1
g2
Ntp3400
Rp3401
(dp3402
g6
Nsg8
I-1
sg9
Nsg35
Nsbssg35
Nsbssg35
Nsbssg35
NsbsI3
g0
(g1
g2
Ntp3403
Rp3404
(dp3405
g6
Vcontains(creative)
p3406
sg8
I-1
sg9
(dp3407
I00
g0
(g1
g2
Ntp3408
Rp3409
(dp3410
g6
Nsg8
I-1
sg9
Nsg35
NsbsI01
g0
(g1
g2
Ntp3411
Rp3412
(dp3413
g6
Nsg8
I0
sg9
Nsg35
Nsbssg35
Nsbssg35
NsbsI01
g0
(g1
g2
Ntp3414
Rp3415
(dp3416
g6
g499
sg8
I-1
sg9
(dp3417
I0
g0
(g1
g2
Ntp3418
Rp3419
(dp3420
g6
S'contains(major)'
p3421
sg8
I-1
sg9
(dp3422
I01
g0
(g1
g2
Ntp3423
Rp3424
(dp3425
g6
Nsg8
I1
sg9
Nsg35
NsbsNg0
(g1
g2
Ntp3426
Rp3427
(dp3428
g6
S'contains(also)'
p3429
sg8
I-1
sg9
(dp3430
I01
g0
(g1
g2
Ntp3431
Rp3432
(dp3433
g6
Nsg8
I-1
sg9
Nsg35
NsbsNg0
(g1
g2
Ntp3434
Rp3435
(dp3436
g6
S'contains(tried)'
p3437
sg8
I-1
sg9
(dp3438
I01
g0
(g1
g2
Ntp3439
Rp3440
(dp3441
g6
Nsg8
I-1
sg9
Nsg35
NsbsNg0
(g1
g2
Ntp3442
Rp3443
(dp3444
g6
S'contains(running)'
p3445
sg8
I1
sg9
(dp3446
I01
g0
(g1
g2
Ntp3447
Rp3448
(dp3449
g6
Nsg8
I1
sg9
Nsg35
NsbsNg0
(g1
g2
Ntp3450
Rp3451
(dp3452
g6
Nsg8
I0
sg9
Nsg35
Nsbssg35
Nsbssg35
Nsbssg35
Nsbssg35
NsbsI1
g0
(g1
g2
Ntp3453
Rp3454
(dp3455
g6
Nsg8
I1
sg9
Nsg35
Nsbssg35
Nsbssg35
Nsbsg1914
g0
(g1
g2
Ntp3456
Rp3457
(dp3458
g6
g499
sg8
I-1
sg9
(dp3459
I0
g0
(g1
g2
Ntp3460
Rp3461
(dp3462
g6
Nsg8
I0
sg9
Nsg35
NsbsI1
g0
(g1
g2
Ntp3463
Rp3464
(dp3465
g6
Nsg8
I1
sg9
Nsg35
NsbsI2
g0
(g1
g2
Ntp3466
Rp3467
(dp3468
g6
Nsg8
I0
sg9
Nsg35
NsbsI3
g0
(g1
g2
Ntp3469
Rp3470
(dp3471
g6
Nsg8
I-1
sg9
Nsg35
Nsbssg35
Nsbssg35
Nsbssg35
Nsbssg35
Nsbssg35
NsbsI01
g0
(g1
g2
Ntp3472
Rp3473
(dp3474
g6
S'contains(bought)'
p3475
sg8
I0
sg9
(dp3476
I01
g0
(g1
g2
Ntp3477
Rp3478
(dp3479
g6
S"contains_bigram_pattern(n't,have)"
p3480
sg8
I0
sg9
(dp3481
I00
g0
(g1
g2
Ntp3482
Rp3483
(dp3484
g6
Nsg8
I0
sg9
Nsg35
NsbsI01
g0
(g1
g2
Ntp3485
Rp3486
(dp3487
g6
Nsg8
I-1
sg9
Nsg35
Nsbssg35
NsbsNg0
(g1
g2
Ntp3488
Rp3489
(dp3490
g6
Vcontains(music)
p3491
sg8
I0
sg9
(dp3492
I00
g0
(g1
g2
Ntp3493
Rp3494
(dp3495
g6
S'contains(sure)'
p3496
sg8
I1
sg9
(dp3497
I01
g0
(g1
g2
Ntp3498
Rp3499
(dp3500
g6
Nsg8
I0
sg9
Nsg35
NsbsNg0
(g1
g2
Ntp3501
Rp3502
(dp3503
g6
S'contains(would)'
p3504
sg8
I1
sg9
(dp3505
I01
g0
(g1
g2
Ntp3506
Rp3507
(dp3508
g6
S'contains(thought)'
p3509
sg8
I1
sg9
(dp3510
I01
g0
(g1
g2
Ntp3511
Rp3512
(dp3513
g6
Nsg8
I1
sg9
Nsg35
NsbsNg0
(g1
g2
Ntp3514
Rp3515
(dp3516
g6
Nsg8
I0
sg9
Nsg35
Nsbssg35
NsbsNg0
(g1
g2
Ntp3517
Rp3518
(dp3519
g6
S'contains(made)'
p3520
sg8
I1
sg9
(dp3521
I01
g0
(g1
g2
Ntp3522
Rp3523
(dp3524
g6
Vcontains(creative)
p3525
sg8
I0
sg9
(dp3526
I00
g0
(g1
g2
Ntp3527
Rp3528
(dp3529
g6
Nsg8
I0
sg9
Nsg35
NsbsI01
g0
(g1
g2
Ntp3530
Rp3531
(dp3532
g6
Nsg8
I-1
sg9
Nsg35
Nsbssg35
NsbsNg0
(g1
g2
Ntp3533
Rp3534
(dp3535
g6
S'contains(find)'
p3536
sg8
I1
sg9
(dp3537
I01
g0
(g1
g2
Ntp3538
Rp3539
(dp3540
g6
Nsg8
I0
sg9
Nsg35
NsbsNg0
(g1
g2
Ntp3541
Rp3542
(dp3543
g6
S'contains(either)'
p3544
sg8
I1
sg9
(dp3545
I01
g0
(g1
g2
Ntp3546
Rp3547
(dp3548
g6
Nsg8
I-1
sg9
Nsg35
NsbsNg0
(g1
g2
Ntp3549
Rp3550
(dp3551
g6
S'contains(know)'
p3552
sg8
I1
sg9
(dp3553
I01
g0
(g1
g2
Ntp3554
Rp3555
(dp3556
g6
Nsg8
I0
sg9
Nsg35
NsbsNg0
(g1
g2
Ntp3557
Rp3558
(dp3559
g6
S'contains(however)'
p3560
sg8
I1
sg9
(dp3561
I01
g0
(g1
g2
Ntp3562
Rp3563
(dp3564
g6
Nsg8
I0
sg9
Nsg35
NsbsNg0
(g1
g2
Ntp3565
Rp3566
(dp3567
g6
S'contains(took)'
p3568
sg8
I1
sg9
(dp3569
I01
g0
(g1
g2
Ntp3570
Rp3571
(dp3572
g6
Nsg8
I0
sg9
Nsg35
NsbsNg0
(g1
g2
Ntp3573
Rp3574
(dp3575
g6
Vcontains(cool)
p3576
sg8
I1
sg9
(dp3577
I00
g0
(g1
g2
Ntp3578
Rp3579
(dp3580
g6
S'contains(although)'
p3581
sg8
I1
sg9
(dp3582
I01
g0
(g1
g2
Ntp3583
Rp3584
(dp3585
g6
Nsg8
I-1
sg9
Nsg35
NsbsNg0
(g1
g2
Ntp3586
Rp3587
(dp3588
g6
S'contains_bigram_pattern(little,getting)'
p3589
sg8
I1
sg9
(dp3590
I00
g0
(g1
g2
Ntp3591
Rp3592
(dp3593
g6
S'contains(somewhat)'
p3594
sg8
I1
sg9
(dp3595
I01
g0
(g1
g2
Ntp3596
Rp3597
(dp3598
g6
Nsg8
I0
sg9
Nsg35
NsbsNg0
(g1
g2
Ntp3599
Rp3600
(dp3601
g6
Vcontains(digital)
p3602
sg8
I1
sg9
(dp3603
I00
g0
(g1
g2
Ntp3604
Rp3605
(dp3606
g6
S'contains(could)'
p3607
sg8
I1
sg9
(dp3608
I01
g0
(g1
g2
Ntp3609
Rp3610
(dp3611
g6
S'contains(read)'
p3612
sg8
I0
sg9
(dp3613
I01
g0
(g1
g2
Ntp3614
Rp3615
(dp3616
g6
Nsg8
I-1
sg9
Nsg35
NsbsNg0
(g1
g2
Ntp3617
Rp3618
(dp3619
g6
Nsg8
I0
sg9
Nsg35
Nsbssg35
NsbsNg0
(g1
g2
Ntp3620
Rp3621
(dp3622
g6
S'contains(based)'
p3623
sg8
I1
sg9
(dp3624
I01
g0
(g1
g2
Ntp3625
Rp3626
(dp3627
g6
Nsg8
I0
sg9
Nsg35
NsbsNg0
(g1
g2
Ntp3628
Rp3629
(dp3630
g6
S'contains(trying)'
p3631
sg8
I1
sg9
(dp3632
I01
g0
(g1
g2
Ntp3633
Rp3634
(dp3635
g6
Nsg8
I0
sg9
Nsg35
NsbsNg0
(g1
g2
Ntp3636
Rp3637
(dp3638
g6
S'contains_bigram_pattern(other,reviewers)'
p3639
sg8
I1
sg9
(dp3640
I00
g0
(g1
g2
Ntp3641
Rp3642
(dp3643
g6
S'contains(every)'
p3644
sg8
I1
sg9
(dp3645
I01
g0
(g1
g2
Ntp3646
Rp3647
(dp3648
g6
Nsg8
I0
sg9
Nsg35
NsbsNg0
(g1
g2
Ntp3649
Rp3650
(dp3651
g6
S'contains(recommend)'
p3652
sg8
I1
sg9
(dp3653
I01
g0
(g1
g2
Ntp3654
Rp3655
(dp3656
g6
Nsg8
I0
sg9
Nsg35
NsbsNg0
(g1
g2
Ntp3657
Rp3658
(dp3659
g6
S'contains(needs)'
p3660
sg8
I1
sg9
(dp3661
I01
g0
(g1
g2
Ntp3662
Rp3663
(dp3664
g6
Nsg8
I-1
sg9
Nsg35
NsbsNg0
(g1
g2
Ntp3665
Rp3666
(dp3667
g6
Nsg8
I1
sg9
Nsg35
Nsbssg35
Nsbssg35
Nsbssg35
NsbsI01
g0
(g1
g2
Ntp3668
Rp3669
(dp3670
g6
Nsg8
I0
sg9
Nsg35
Nsbssg35
Nsbssg35
Nsbssg35
Nsbssg35
NsbsI01
g0
(g1
g2
Ntp3671
Rp3672
(dp3673
g6
S'contains(completely)'
p3674
sg8
I0
sg9
(dp3675
I01
g0
(g1
g2
Ntp3676
Rp3677
(dp3678
g6
Nsg8
I1
sg9
Nsg35
NsbsNg0
(g1
g2
Ntp3679
Rp3680
(dp3681
g6
Nsg8
I0
sg9
Nsg35
Nsbssg35
Nsbssg35
Nsbssg35
NsbsI01
g0
(g1
g2
Ntp3682
Rp3683
(dp3684
g6
Nsg8
I-1
sg9
Nsg35
Nsbssg35
Nsbssg35
NsbsI01
g0
(g1
g2
Ntp3685
Rp3686
(dp3687
g6
Nsg8
I0
sg9
Nsg35
Nsbssg35
Nsbssg35
Nsbssg35
Nsbssg35
Nsbssg35
Nsbssg35
Nsbssg35
Nsbssg35
Nsbssg35
NsbsI01
g0
(g1
g2
Ntp3688
Rp3689
(dp3690
g6
S'contains(able)'
p3691
sg8
I0
sg9
(dp3692
I01
g0
(g1
g2
Ntp3693
Rp3694
(dp3695
g6
Nsg8
I1
sg9
Nsg35
NsbsNg0
(g1
g2
Ntp3696
Rp3697
(dp3698
g6
Nsg8
I0
sg9
Nsg35
Nsbssg35
Nsbssg35
Nsbssg35
Nsbssg35
NsbsI01
g0
(g1
g2
Ntp3699
Rp3700
(dp3701
g6
g90
sg8
I1
sg9
(dp3702
g11
g0
(g1
g2
Ntp3703
Rp3704
(dp3705
g6
S'contains(also)'
p3706
sg8
I1
sg9
(dp3707
I01
g0
(g1
g2
Ntp3708
Rp3709
(dp3710
g6
Nsg8
I0
sg9
Nsg35
NsbsNg0
(g1
g2
Ntp3711
Rp3712
(dp3713
g6
S'contains(made)'
p3714
sg8
I1
sg9
(dp3715
I01
g0
(g1
g2
Ntp3716
Rp3717
(dp3718
g6
Nsg8
I-1
sg9
Nsg35
NsbsNg0
(g1
g2
Ntp3719
Rp3720
(dp3721
g6
S'contains(setting)'
p3722
sg8
I1
sg9
(dp3723
I01
g0
(g1
g2
Ntp3724
Rp3725
(dp3726
g6
Nsg8
I0
sg9
Nsg35
NsbsNg0
(g1
g2
Ntp3727
Rp3728
(dp3729
g6
S'contains(however)'
p3730
sg8
I1
sg9
(dp3731
I01
g0
(g1
g2
Ntp3732
Rp3733
(dp3734
g6
Nsg8
I0
sg9
Nsg35
NsbsNg0
(g1
g2
Ntp3735
Rp3736
(dp3737
g6
S'contains(installed)'
p3738
sg8
I1
sg9
(dp3739
I01
g0
(g1
g2
Ntp3740
Rp3741
(dp3742
g6
Nsg8
I0
sg9
Nsg35
NsbsNg0
(g1
g2
Ntp3743
Rp3744
(dp3745
g6
S'contains(powerful)'
p3746
sg8
I1
sg9
(dp3747
I01
g0
(g1
g2
Ntp3748
Rp3749
(dp3750
g6
Nsg8
I0
sg9
Nsg35
NsbsNg0
(g1
g2
Ntp3751
Rp3752
(dp3753
g6
S'contains(already)'
p3754
sg8
I1
sg9
(dp3755
I01
g0
(g1
g2
Ntp3756
Rp3757
(dp3758
g6
Nsg8
I0
sg9
Nsg35
NsbsNg0
(g1
g2
Ntp3759
Rp3760
(dp3761
g6
Vcontains(new)
p3762
sg8
I1
sg9
(dp3763
I00
g0
(g1
g2
Ntp3764
Rp3765
(dp3766
g6
S'contains(unlike)'
p3767
sg8
I1
sg9
(dp3768
I01
g0
(g1
g2
Ntp3769
Rp3770
(dp3771
g6
Nsg8
I0
sg9
Nsg35
NsbsNg0
(g1
g2
Ntp3772
Rp3773
(dp3774
g6
S'contains(purchased)'
p3775
sg8
I1
sg9
(dp3776
I01
g0
(g1
g2
Ntp3777
Rp3778
(dp3779
g6
Nsg8
I0
sg9
Nsg35
NsbsNg0
(g1
g2
Ntp3780
Rp3781
(dp3782
g6
Nsg8
I1
sg9
Nsg35
Nsbssg35
Nsbssg35
NsbsI01
g0
(g1
g2
Ntp3783
Rp3784
(dp3785
g6
Nsg8
I-1
sg9
Nsg35
Nsbssg35
Nsbssg35
Nsbssg35
Nsbssg35
Nsbssg35
Nsbssg35
Nsbssg35
Nsbssg35
Nsbsg1914
g0
(g1
g2
Ntp3786
Rp3787
(dp3788
g6
Vcontains(many)
p3789
sg8
I0
sg9
(dp3790
I00
g0
(g1
g2
Ntp3791
Rp3792
(dp3793
g6
Nsg8
I-1
sg9
Nsg35
NsbsI01
g0
(g1
g2
Ntp3794
Rp3795
(dp3796
g6
Nsg8
I0
sg9
Nsg35
Nsbssg35
Nsbsg321
g0
(g1
g2
Ntp3797
Rp3798
(dp3799
g6
g316
sg8
I-1
sg9
(dp3800
g11
g0
(g1
g2
Ntp3801
Rp3802
(dp3803
g6
Nsg8
I1
sg9
Nsg35
Nsbsg321
g0
(g1
g2
Ntp3804
Rp3805
(dp3806
g6
g172
sg8
I-1
sg9
(dp3807
I0
g0
(g1
g2
Ntp3808
Rp3809
(dp3810
g6
Nsg8
I0
sg9
Nsg35
NsbsI1
g0
(g1
g2
Ntp3811
Rp3812
(dp3813
g6
Nsg8
I-1
sg9
Nsg35
Nsbssg35
Nsbssg35
Nsbssg35
Nsbssg35
Nsbsg321
g0
(g1
g2
Ntp3814
Rp3815
(dp3816
g6
g1418
sg8
I1
sg9
(dp3817
g11
g0
(g1
g2
Ntp3818
Rp3819
(dp3820
g6
S'contains(simple)'
p3821
sg8
I0
sg9
(dp3822
I01
g0
(g1
g2
Ntp3823
Rp3824
(dp3825
g6
Nsg8
I1
sg9
Nsg35
NsbsNg0
(g1
g2
Ntp3826
Rp3827
(dp3828
g6
S'contains(never)'
p3829
sg8
I0
sg9
(dp3830
I01
g0
(g1
g2
Ntp3831
Rp3832
(dp3833
g6
Vcontains(new)
p3834
sg8
I1
sg9
(dp3835
I00
g0
(g1
g2
Ntp3836
Rp3837
(dp3838
g6
Nsg8
I1
sg9
Nsg35
NsbsI01
g0
(g1
g2
Ntp3839
Rp3840
(dp3841
g6
Nsg8
I0
sg9
Nsg35
Nsbssg35
NsbsNg0
(g1
g2
Ntp3842
Rp3843
(dp3844
g6
S'contains(ever)'
p3845
sg8
I0
sg9
(dp3846
I01
g0
(g1
g2
Ntp3847
Rp3848
(dp3849
g6
Nsg8
I1
sg9
Nsg35
NsbsNg0
(g1
g2
Ntp3850
Rp3851
(dp3852
g6
S"contains_bigram_pattern(n't,have)"
p3853
sg8
I0
sg9
(dp3854
I00
g0
(g1
g2
Ntp3855
Rp3856
(dp3857
g6
S'contains(less)'
p3858
sg8
I0
sg9
(dp3859
I01
g0
(g1
g2
Ntp3860
Rp3861
(dp3862
g6
Nsg8
I1
sg9
Nsg35
NsbsNg0
(g1
g2
Ntp3863
Rp3864
(dp3865
g6
S'contains_bigram_pattern(huge,storage)'
p3866
sg8
I0
sg9
(dp3867
I00
g0
(g1
g2
Ntp3868
Rp3869
(dp3870
g6
S'contains_bigram_pattern(extra,features)'
p3871
sg8
I0
sg9
(dp3872
I00
g0
(g1
g2
Ntp3873
Rp3874
(dp3875
g6
Vcontains(hard)
p3876
sg8
I0
sg9
(dp3877
I00
g0
(g1
g2
Ntp3878
Rp3879
(dp3880
g6
S'contains(seen)'
p3881
sg8
I0
sg9
(dp3882
I01
g0
(g1
g2
Ntp3883
Rp3884
(dp3885
g6
Nsg8
I1
sg9
Nsg35
NsbsNg0
(g1
g2
Ntp3886
Rp3887
(dp3888
g6
S'contains(however)'
p3889
sg8
I0
sg9
(dp3890
I01
g0
(g1
g2
Ntp3891
Rp3892
(dp3893
g6
Nsg8
I-1
sg9
Nsg35
NsbsNg0
(g1
g2
Ntp3894
Rp3895
(dp3896
g6
S'contains(special)'
p3897
sg8
I0
sg9
(dp3898
I01
g0
(g1
g2
Ntp3899
Rp3900
(dp3901
g6
Nsg8
I1
sg9
Nsg35
NsbsNg0
(g1
g2
Ntp3902
Rp3903
(dp3904
g6
S'contains(taken)'
p3905
sg8
I0
sg9
(dp3906
I01
g0
(g1
g2
Ntp3907
Rp3908
(dp3909
g6
Nsg8
I1
sg9
Nsg35
NsbsNg0
(g1
g2
Ntp3910
Rp3911
(dp3912
g6
S'contains_bigram_pattern(little,guy)'
p3913
sg8
I0
sg9
(dp3914
I00
g0
(g1
g2
Ntp3915
Rp3916
(dp3917
g6
S'contains(able)'
p3918
sg8
I0
sg9
(dp3919
I01
g0
(g1
g2
Ntp3920
Rp3921
(dp3922
g6
Nsg8
I1
sg9
Nsg35
NsbsNg0
(g1
g2
Ntp3923
Rp3924
(dp3925
g6
S'contains_bigram_pattern(recently,had)'
p3926
sg8
I0
sg9
(dp3927
I00
g0
(g1
g2
Ntp3928
Rp3929
(dp3930
g6
S'contains_bigram_pattern(variable,speed)'
p3931
sg8
I0
sg9
(dp3932
I00
g0
(g1
g2
Ntp3933
Rp3934
(dp3935
g6
S'contains(installed)'
p3936
sg8
I0
sg9
(dp3937
I01
g0
(g1
g2
Ntp3938
Rp3939
(dp3940
g6
Nsg8
I1
sg9
Nsg35
NsbsNg0
(g1
g2
Ntp3941
Rp3942
(dp3943
g6
S'contains(install)'
p3944
sg8
I0
sg9
(dp3945
I01
g0
(g1
g2
Ntp3946
Rp3947
(dp3948
g6
Nsg8
I1
sg9
Nsg35
NsbsNg0
(g1
g2
Ntp3949
Rp3950
(dp3951
g6
S'contains_bigram_pattern(very,good)'
p3952
sg8
I0
sg9
(dp3953
I00
g0
(g1
g2
Ntp3954
Rp3955
(dp3956
g6
S'contains(without)'
p3957
sg8
I0
sg9
(dp3958
I01
g0
(g1
g2
Ntp3959
Rp3960
(dp3961
g6
Nsg8
I1
sg9
Nsg35
NsbsNg0
(g1
g2
Ntp3962
Rp3963
(dp3964
g6
S'contains_bigram_pattern(low,price)'
p3965
sg8
I0
sg9
(dp3966
I00
g0
(g1
g2
Ntp3967
Rp3968
(dp3969
g6
S'contains(optical)'
p3970
sg8
I0
sg9
(dp3971
I01
g0
(g1
g2
Ntp3972
Rp3973
(dp3974
g6
Nsg8
I1
sg9
Nsg35
NsbsNg0
(g1
g2
Ntp3975
Rp3976
(dp3977
g6
S'contains_bigram_pattern(small,device)'
p3978
sg8
I0
sg9
(dp3979
I00
g0
(g1
g2
Ntp3980
Rp3981
(dp3982
g6
S'contains(give)'
p3983
sg8
I0
sg9
(dp3984
I01
g0
(g1
g2
Ntp3985
Rp3986
(dp3987
g6
Nsg8
I1
sg9
Nsg35
NsbsNg0
(g1
g2
Ntp3988
Rp3989
(dp3990
g6
Nsg8
I0
sg9
Nsg35
Nsbssg35
NsbsI01
g0
(g1
g2
Ntp3991
Rp3992
(dp3993
g6
Nsg8
I1
sg9
Nsg35
Nsbssg35
Nsbssg35
NsbsI01
g0
(g1
g2
Ntp3994
Rp3995
(dp3996
g6
Nsg8
I-1
sg9
Nsg35
Nsbssg35
Nsbssg35
NsbsI01
g0
(g1
g2
Ntp3997
Rp3998
(dp3999
g6
Nsg8
I-1
sg9
Nsg35
Nsbssg35
Nsbssg35
Nsbssg35
NsbsI01
g0
(g1
g2
Ntp4000
Rp4001
(dp4002
g6
S'contains_bigram_pattern(continuously,variable)'
p4003
sg8
I-1
sg9
(dp4004
I00
g0
(g1
g2
Ntp4005
Rp4006
(dp4007
g6
Nsg8
I-1
sg9
Nsg35
NsbsI01
g0
(g1
g2
Ntp4008
Rp4009
(dp4010
g6
Nsg8
I1
sg9
Nsg35
Nsbssg35
Nsbssg35
NsbsI01
g0
(g1
g2
Ntp4011
Rp4012
(dp4013
g6
Nsg8
I1
sg9
Nsg35
Nsbssg35
Nsbssg35
NsbsI01
g0
(g1
g2
Ntp4014
Rp4015
(dp4016
g6
Nsg8
I1
sg9
Nsg35
Nsbssg35
Nsbssg35
Nsbssg35
Nsbssg35
Nsbssg35
NsbsI01
g0
(g1
g2
Ntp4017
Rp4018
(dp4019
g6
Nsg8
I1
sg9
Nsg35
Nsbssg35
NsbsI01
g0
(g1
g2
Ntp4020
Rp4021
(dp4022
g6
Vcontains(new)
p4023
sg8
I1
sg9
(dp4024
I00
g0
(g1
g2
Ntp4025
Rp4026
(dp4027
g6
Nsg8
I1
sg9
Nsg35
NsbsI01
g0
(g1
g2
Ntp4028
Rp4029
(dp4030
g6
Nsg8
I-1
sg9
Nsg35
Nsbssg35
Nsbssg35
NsbsI01
g0
(g1
g2
Ntp4031
Rp4032
(dp4033
g6
Nsg8
I1
sg9
Nsg35
Nsbssg35
Nsbssg35
NsbsI01
g0
(g1
g2
Ntp4034
Rp4035
(dp4036
g6
Nsg8
I1
sg9
Nsg35
Nsbssg35
Nsbssg35
Nsbssg35
Nsbssg35
Nsbsg321
g0
(g1
g2
Ntp4037
Rp4038
(dp4039
g6
S'contains_bigram_pattern(highly,recommended)'
p4040
sg8
I1
sg9
(dp4041
I00
g0
(g1
g2
Ntp4042
Rp4043
(dp4044
g6
S'contains_bigram_pattern(good,thing)'
p4045
sg8
I1
sg9
(dp4046
I00
g0
(g1
g2
Ntp4047
Rp4048
(dp4049
g6
Vcontains(same)
p4050
sg8
I1
sg9
(dp4051
I00
g0
(g1
g2
Ntp4052
Rp4053
(dp4054
g6
g90
sg8
I1
sg9
(dp4055
g11
g0
(g1
g2
Ntp4056
Rp4057
(dp4058
g6
S"contains_bigram_pattern(n't,need)"
p4059
sg8
I1
sg9
(dp4060
I00
g0
(g1
g2
Ntp4061
Rp4062
(dp4063
g6
S'contains_bigram_pattern(much,better)'
p4064
sg8
I1
sg9
(dp4065
I00
g0
(g1
g2
Ntp4066
Rp4067
(dp4068
g6
S'contains_bigram_pattern(other,phones)'
p4069
sg8
I1
sg9
(dp4070
I00
g0
(g1
g2
Ntp4071
Rp4072
(dp4073
g6
S'contains(open)'
p4074
sg8
I1
sg9
(dp4075
I01
g0
(g1
g2
Ntp4076
Rp4077
(dp4078
g6
Nsg8
I0
sg9
Nsg35
NsbsNg0
(g1
g2
Ntp4079
Rp4080
(dp4081
g6
S'contains_bigram_pattern(pretty,cool)'
p4082
sg8
I1
sg9
(dp4083
I00
g0
(g1
g2
Ntp4084
Rp4085
(dp4086
g6
S"contains_bigram_pattern(n't,care)"
p4087
sg8
I1
sg9
(dp4088
I00
g0
(g1
g2
Ntp4089
Rp4090
(dp4091
g6
S'contains(based)'
p4092
sg8
I1
sg9
(dp4093
I01
g0
(g1
g2
Ntp4094
Rp4095
(dp4096
g6
Vcontains(many)
p4097
sg8
I0
sg9
(dp4098
I00
g0
(g1
g2
Ntp4099
Rp4100
(dp4101
g6
Nsg8
I0
sg9
Nsg35
NsbsI01
g0
(g1
g2
Ntp4102
Rp4103
(dp4104
g6
Nsg8
I1
sg9
Nsg35
Nsbssg35
NsbsNg0
(g1
g2
Ntp4105
Rp4106
(dp4107
g6
S'contains(said)'
p4108
sg8
I1
sg9
(dp4109
I01
g0
(g1
g2
Ntp4110
Rp4111
(dp4112
g6
Nsg8
I0
sg9
Nsg35
NsbsNg0
(g1
g2
Ntp4113
Rp4114
(dp4115
g6
S'contains_bigram_pattern(cool,features)'
p4116
sg8
I1
sg9
(dp4117
I00
g0
(g1
g2
Ntp4118
Rp4119
(dp4120
g6
S'contains(gave)'
p4121
sg8
I1
sg9
(dp4122
I01
g0
(g1
g2
Ntp4123
Rp4124
(dp4125
g6
Nsg8
I0
sg9
Nsg35
NsbsNg0
(g1
g2
Ntp4126
Rp4127
(dp4128
g6
S'contains_bigram_pattern(really,good)'
p4129
sg8
I1
sg9
(dp4130
I00
g0
(g1
g2
Ntp4131
Rp4132
(dp4133
g6
Nsg8
I1
sg9
Nsg35
NsbsI01
g0
(g1
g2
Ntp4134
Rp4135
(dp4136
g6
S'contains(works)'
p4137
sg8
I0
sg9
(dp4138
I01
g0
(g1
g2
Ntp4139
Rp4140
(dp4141
g6
Nsg8
I1
sg9
Nsg35
NsbsNg0
(g1
g2
Ntp4142
Rp4143
(dp4144
g6
Nsg8
I0
sg9
Nsg35
Nsbssg35
Nsbssg35
Nsbssg35
NsbsI01
g0
(g1
g2
Ntp4145
Rp4146
(dp4147
g6
Nsg8
I0
sg9
Nsg35
Nsbssg35
Nsbssg35
Nsbssg35
NsbsI01
g0
(g1
g2
Ntp4148
Rp4149
(dp4150
g6
Nsg8
I0
sg9
Nsg35
Nsbssg35
NsbsI01
g0
(g1
g2
Ntp4151
Rp4152
(dp4153
g6
Nsg8
I0
sg9
Nsg35
Nsbssg35
Nsbssg35
NsbsI01
g0
(g1
g2
Ntp4154
Rp4155
(dp4156
g6
Nsg8
I0
sg9
Nsg35
Nsbssg35
NsbsI01
g0
(g1
g2
Ntp4157
Rp4158
(dp4159
g6
S'contains(sound)'
p4160
sg8
I0
sg9
(dp4161
I01
g0
(g1
g2
Ntp4162
Rp4163
(dp4164
g6
Nsg8
I1
sg9
Nsg35
NsbsNg0
(g1
g2
Ntp4165
Rp4166
(dp4167
g6
S'contains(looks)'
p4168
sg8
I0
sg9
(dp4169
I01
g0
(g1
g2
Ntp4170
Rp4171
(dp4172
g6
Nsg8
I1
sg9
Nsg35
NsbsNg0
(g1
g2
Ntp4173
Rp4174
(dp4175
g6
S'contains(works)'
p4176
sg8
I0
sg9
(dp4177
I01
g0
(g1
g2
Ntp4178
Rp4179
(dp4180
g6
Nsg8
I-1
sg9
Nsg35
NsbsNg0
(g1
g2
Ntp4181
Rp4182
(dp4183
g6
S'contains(needed)'
p4184
sg8
I0
sg9
(dp4185
I01
g0
(g1
g2
Ntp4186
Rp4187
(dp4188
g6
Nsg8
I1
sg9
Nsg35
NsbsNg0
(g1
g2
Ntp4189
Rp4190
(dp4191
g6
S'contains(expensive)'
p4192
sg8
I0
sg9
(dp4193
I01
g0
(g1
g2
Ntp4194
Rp4195
(dp4196
g6
Nsg8
I1
sg9
Nsg35
NsbsNg0
(g1
g2
Ntp4197
Rp4198
(dp4199
g6
Vcontains(great)
p4200
sg8
I0
sg9
(dp4201
I00
g0
(g1
g2
Ntp4202
Rp4203
(dp4204
g6
S'contains(fits)'
p4205
sg8
I0
sg9
(dp4206
I01
g0
(g1
g2
Ntp4207
Rp4208
(dp4209
g6
Nsg8
I1
sg9
Nsg35
NsbsNg0
(g1
g2
Ntp4210
Rp4211
(dp4212
g6
Nsg8
I0
sg9
Nsg35
Nsbssg35
NsbsI01
g0
(g1
g2
Ntp4213
Rp4214
(dp4215
g6
Nsg8
I1
sg9
Nsg35
Nsbssg35
Nsbssg35
Nsbssg35
Nsbssg35
Nsbssg35
Nsbssg35
Nsbssg35
NsbsI01
g0
(g1
g2
Ntp4216
Rp4217
(dp4218
g6
S'contains(special)'
p4219
sg8
I0
sg9
(dp4220
I01
g0
(g1
g2
Ntp4221
Rp4222
(dp4223
g6
Nsg8
I1
sg9
Nsg35
NsbsNg0
(g1
g2
Ntp4224
Rp4225
(dp4226
g6
Nsg8
I0
sg9
Nsg35
Nsbssg35
Nsbssg35
Nsbsg321
g0
(g1
g2
Ntp4227
Rp4228
(dp4229
g6
Vcontains(creative)
p4230
sg8
I1
sg9
(dp4231
I00
g0
(g1
g2
Ntp4232
Rp4233
(dp4234
g6
S'contains_bigram_pattern(new,computer)'
p4235
sg8
I1
sg9
(dp4236
I00
g0
(g1
g2
Ntp4237
Rp4238
(dp4239
g6
S'contains_bigram_pattern(not,easy)'
p4240
sg8
I1
sg9
(dp4241
I00
g0
(g1
g2
Ntp4242
Rp4243
(dp4244
g6
S"contains_bigram_pattern(n't,work)"
p4245
sg8
I1
sg9
(dp4246
I00
g0
(g1
g2
Ntp4247
Rp4248
(dp4249
g6
S"contains_bigram_pattern(n't,want)"
p4250
sg8
I1
sg9
(dp4251
I00
g0
(g1
g2
Ntp4252
Rp4253
(dp4254
g6
S'contains(ever)'
p4255
sg8
I1
sg9
(dp4256
I01
g0
(g1
g2
Ntp4257
Rp4258
(dp4259
g6
Nsg8
I0
sg9
Nsg35
NsbsNg0
(g1
g2
Ntp4260
Rp4261
(dp4262
g6
S'contains_bigram_pattern(not,mentioned)'
p4263
sg8
I1
sg9
(dp4264
I00
g0
(g1
g2
Ntp4265
Rp4266
(dp4267
g6
Nsg8
I1
sg9
Nsg35
NsbsI01
g0
(g1
g2
Ntp4268
Rp4269
(dp4270
g6
Nsg8
I0
sg9
Nsg35
Nsbssg35
Nsbssg35
NsbsI01
g0
(g1
g2
Ntp4271
Rp4272
(dp4273
g6
Nsg8
I0
sg9
Nsg35
Nsbssg35
NsbsI01
g0
(g1
g2
Ntp4274
Rp4275
(dp4276
g6
Nsg8
I0
sg9
Nsg35
Nsbssg35
NsbsI01
g0
(g1
g2
Ntp4277
Rp4278
(dp4279
g6
Nsg8
I-1
sg9
Nsg35
Nsbssg35
NsbsI01
g0
(g1
g2
Ntp4280
Rp4281
(dp4282
g6
Nsg8
I0
sg9
Nsg35
Nsbssg35
NsbsI01
g0
(g1
g2
Ntp4283
Rp4284
(dp4285
g6
Nsg8
I-1
sg9
Nsg35
Nsbssg35
Nsbsg1914
g0
(g1
g2
Ntp4286
Rp4287
(dp4288
g6
S'contains(must)'
p4289
sg8
I-1
sg9
(dp4290
I01
g0
(g1
g2
Ntp4291
Rp4292
(dp4293
g6
Nsg8
I0
sg9
Nsg35
NsbsNg0
(g1
g2
Ntp4294
Rp4295
(dp4296
g6
Nsg8
I-1
sg9
Nsg35
Nsbssg35
Nsbssg35
NsbsI01
g0
(g1
g2
Ntp4297
Rp4298
(dp4299
g6
S'contains_bigram_pattern(not,work)'
p4300
sg8
I0
sg9
(dp4301
I00
g0
(g1
g2
Ntp4302
Rp4303
(dp4304
g6
S'contains(turn)'
p4305
sg8
I0
sg9
(dp4306
I01
g0
(g1
g2
Ntp4307
Rp4308
(dp4309
g6
Nsg8
I-1
sg9
Nsg35
NsbsNg0
(g1
g2
Ntp4310
Rp4311
(dp4312
g6
Nsg8
I0
sg9
Nsg35
Nsbssg35
NsbsI01
g0
(g1
g2
Ntp4313
Rp4314
(dp4315
g6
Nsg8
I1
sg9
Nsg35
Nsbssg35
Nsbssg35
NsbsI01
g0
(g1
g2
Ntp4316
Rp4317
(dp4318
g6
S'contains(seems)'
p4319
sg8
I1
sg9
(dp4320
I01
g0
(g1
g2
Ntp4321
Rp4322
(dp4323
g6
Nsg8
I1
sg9
Nsg35
NsbsNg0
(g1
g2
Ntp4324
Rp4325
(dp4326
g6
Nsg8
I0
sg9
Nsg35
Nsbssg35
Nsbssg35
NsbsI01
g0
(g1
g2
Ntp4327
Rp4328
(dp4329
g6
S"contains_bigram_pattern(n't,have)"
p4330
sg8
I0
sg9
(dp4331
I00
g0
(g1
g2
Ntp4332
Rp4333
(dp4334
g6
Nsg8
I0
sg9
Nsg35
NsbsI01
g0
(g1
g2
Ntp4335
Rp4336
(dp4337
g6
Nsg8
I1
sg9
Nsg35
Nsbssg35
Nsbssg35
Nsbsg1914
g0
(g1
g2
Ntp4338
Rp4339
(dp4340
g6
S'contains_bigram_pattern(really,nice)'
p4341
sg8
I1
sg9
(dp4342
I00
g0
(g1
g2
Ntp4343
Rp4344
(dp4345
g6
S'contains(without)'
p4346
sg8
I1
sg9
(dp4347
I01
g0
(g1
g2
Ntp4348
Rp4349
(dp4350
g6
Nsg8
I0
sg9
Nsg35
NsbsNg0
(g1
g2
Ntp4351
Rp4352
(dp4353
g6
Nsg8
I1
sg9
Nsg35
Nsbssg35
NsbsI01
g0
(g1
g2
Ntp4354
Rp4355
(dp4356
g6
Nsg8
I0
sg9
Nsg35
Nsbssg35
Nsbssg35
Nsbsg1914
g0
(g1
g2
Ntp4357
Rp4358
(dp4359
g6
S'contains_bigram_pattern(only,had)'
p4360
sg8
I1
sg9
(dp4361
I00
g0
(g1
g2
Ntp4362
Rp4363
(dp4364
g6
S'contains(major)'
p4365
sg8
I1
sg9
(dp4366
I01
g0
(g1
g2
Ntp4367
Rp4368
(dp4369
g6
Nsg8
I0
sg9
Nsg35
NsbsNg0
(g1
g2
Ntp4370
Rp4371
(dp4372
g6
S'contains_bigram_pattern(not,perfect)'
p4373
sg8
I1
sg9
(dp4374
I00
g0
(g1
g2
Ntp4375
Rp4376
(dp4377
g6
S"contains_bigram_pattern(n't,need)"
p4378
sg8
I1
sg9
(dp4379
I00
g0
(g1
g2
Ntp4380
Rp4381
(dp4382
g6
S'contains_bigram_pattern(nice,feature)'
p4383
sg8
I1
sg9
(dp4384
I00
g0
(g1
g2
Ntp4385
Rp4386
(dp4387
g6
Nsg8
I1
sg9
Nsg35
NsbsI01
g0
(g1
g2
Ntp4388
Rp4389
(dp4390
g6
Nsg8
I0
sg9
Nsg35
Nsbssg35
NsbsI01
g0
(g1
g2
Ntp4391
Rp4392
(dp4393
g6
Nsg8
I0
sg9
Nsg35
Nsbssg35
NsbsI01
g0
(g1
g2
Ntp4394
Rp4395
(dp4396
g6
Nsg8
I0
sg9
Nsg35
Nsbssg35
Nsbssg35
NsbsI01
g0
(g1
g2
Ntp4397
Rp4398
(dp4399
g6
Nsg8
I0
sg9
Nsg35
Nsbssg35
Nsbssg35
Nsb.